RASU8(ML610409)Relocatable Assembler, Ver.1.70.0    assemble list. page:   1 
 Source File: _output\_obj\port.asm
 Object File: _output\_obj\port.obj
 Date  : 2017/11/05 Sun.[15:46]
 Title : 
## Loc. Object                   Line   Source Statements

                                    1   ;; Compile Options : /TM610409 /MS /nea
                                        r /Imain /Iclk /IINTERR~1 /Ikey /Ilcd /
                                        Ilcdshow /Imelody /Iport /Ircadc /Itemp
                                        hum /Itimers /IMACROA~1 /Ieternity /ICL
                                        Kbuzz /SD /Ol /Og /Oa /W 1 /Fa_output\_
                                        obj\ /Zs 
                                    2   ;; Version Number  : Ver.3.54.3
                                    3   ;; File Name       : port.c
                                    4   
                                    5   	type (M610409) 
                                    6   	model small, near
                                    7   	$$EXICON_0init$port segment cod
                                        e 2h #0h
                                    8   	$$EXICON_1init$port segment cod
                                        e 2h #0h
                                    9   	$$EXICON_2init$port segment cod
                                        e 2h #0h
                                   10   	$$P0D_init$port segment code 2h
                                         #0h
                                   11   	$$P2CON_0init$port segment code
                                         2h #0h
                                   12   	$$P2CON_1init$port segment code
                                         2h #0h
                                   13   	$$P2D_init$port segment code 2h
                                         #0h
                                   14   	$$P2MOD_init$port segment code 
                                        2h #0h
                                   15   	$$P3CON_0init$port segment code
                                         2h #0h
                                   16   	$$P3CON_1init$port segment code
                                         2h #0h
                                   17   	$$P3DIR_init$port segment code 
                                        2h #0h
                                   18   	$$P3D_init$port segment code 2h
                                         #0h
                                   19   	$$P3MOD_0init$port segment code
                                         2h #0h
                                   20   	$$P4CON_0init$port segment code
                                         2h #0h
                                   21   	$$P4CON_1init$port segment code
                                         2h #0h
                                   22   	$$P4DIR_init$port segment code 
                                        2h #0h
                                   23   	$$P4D_init$port segment code 2h
                                         #0h
                                   24   	$$P4MOD_0init$port segment code
                                         2h #0h
                                   25   	$$P4MOD_1init$port segment code
                                         2h #0h
                                   26   	$$P5CON_0init$port segment code
                                         2h #0h
                                   27   	$$P5CON_1init$port segment code
                                         2h #0h
RASU8(ML610409)Relocatable Assembler, Ver.1.70.0    assemble list. page:   2 
 Title : 
## Loc. Object                   Line   Source Statements

                                   28   	$$P5DIR_init$port segment code 
                                        2h #0h
                                   29   	$$P5D_init$port segment code 2h
                                         #0h
                                   30   	$$P5MOD_0init$port segment code
                                         2h #0h
                                   31   	$$P5MOD_1init$port segment code
                                         2h #0h
                                   32   	$$P5SISEL_init$port segment cod
                                        e 2h #0h
                                   33   	$$PCON_0init$port segment code 
                                        2h #0h
                                   34   	$$PCON_1init$port segment code 
                                        2h #0h
                                   35   CVERSION 3.54.3
                                   36   CGLOBAL 01H 03H 0000H "PCON_1init" 08H 
                                        02H 02H 00H 82H 06H 00H 00H 01H
                                   37   CGLOBAL 01H 03H 0000H "P5SISEL_init" 08
                                        H 02H 1BH 00H 82H 06H 00H 00H 01H
                                   38   CGLOBAL 01H 03H 0000H "PCON_0init" 08H 
                                        02H 01H 00H 82H 06H 00H 00H 01H
                                   39   CGLOBAL 01H 03H 0000H "P0D_init" 08H 02
                                        H 00H 00H 82H 06H 00H 00H 01H
                                   40   CGLOBAL 01H 03H 0000H "P2D_init" 08H 02
                                        H 06H 00H 82H 06H 00H 00H 01H
                                   41   CGLOBAL 01H 03H 0000H "P3D_init" 08H 02
                                        H 0AH 00H 82H 06H 00H 00H 01H
                                   42   CGLOBAL 01H 03H 0000H "P4D_init" 08H 02
                                        H 0FH 00H 82H 06H 00H 00H 01H
                                   43   CGLOBAL 01H 03H 0000H "P5D_init" 08H 02
                                        H 15H 00H 82H 06H 00H 00H 01H
                                   44   CGLOBAL 01H 03H 0000H "P3DIR_init" 08H 
                                        02H 0BH 00H 82H 06H 00H 00H 01H
                                   45   CGLOBAL 01H 03H 0000H "P2MOD_init" 08H 
                                        02H 09H 00H 82H 06H 00H 00H 01H
                                   46   CGLOBAL 01H 03H 0000H "P4DIR_init" 08H 
                                        02H 10H 00H 82H 06H 00H 00H 01H
                                   47   CGLOBAL 01H 03H 0000H "P5DIR_init" 08H 
                                        02H 16H 00H 82H 06H 00H 00H 01H
                                   48   CGLOBAL 01H 03H 0000H "EXICON_0init" 08
                                        H 02H 03H 00H 82H 06H 00H 00H 01H
                                   49   CGLOBAL 01H 03H 0000H "EXICON_1init" 08
                                        H 02H 04H 00H 82H 06H 00H 00H 01H
                                   50   CGLOBAL 01H 03H 0000H "EXICON_2init" 08
                                        H 02H 05H 00H 82H 06H 00H 00H 01H
                                   51   CGLOBAL 01H 03H 0000H "P5CON_1init" 08H
                                         02H 18H 00H 80H 00H 00H 00H 01H
                                   52   CGLOBAL 01H 03H 0000H "P2CON_0init" 08H
                                         02H 07H 00H 82H 06H 00H 00H 01H
                                   53   CGLOBAL 01H 03H 0000H "P4MOD_1init" 08H
                                         02H 14H 00H 82H 06H 00H 00H 01H
                                   54   CGLOBAL 01H 03H 0000H "P3CON_0init" 08H
                                         02H 0CH 00H 82H 06H 00H 00H 01H
                                   55   CGLOBAL 01H 03H 0000H "P5MOD_1init" 08H
                                         02H 1AH 00H 82H 06H 00H 00H 01H
                                   56   CGLOBAL 01H 03H 0000H "P4CON_0init" 08H
RASU8(ML610409)Relocatable Assembler, Ver.1.70.0    assemble list. page:   3 
 Title : 
## Loc. Object                   Line   Source Statements

                                         02H 11H 00H 82H 06H 00H 00H 01H
                                   57   CGLOBAL 01H 03H 0000H "P5CON_0init" 08H
                                         02H 17H 00H 82H 06H 00H 00H 01H
                                   58   CGLOBAL 01H 03H 0000H "P3MOD_0init" 08H
                                         02H 0EH 00H 82H 06H 00H 00H 01H
                                   59   CGLOBAL 01H 03H 0000H "P2CON_1init" 08H
                                         02H 08H 00H 82H 06H 00H 00H 01H
                                   60   CGLOBAL 01H 03H 0000H "P4MOD_0init" 08H
                                         02H 13H 00H 82H 06H 00H 00H 01H
                                   61   CGLOBAL 01H 03H 0000H "P3CON_1init" 08H
                                         02H 0DH 00H 82H 06H 00H 00H 01H
                                   62   CGLOBAL 01H 03H 0000H "P5MOD_0init" 08H
                                         02H 19H 00H 82H 06H 00H 00H 01H
                                   63   CGLOBAL 01H 03H 0000H "P4CON_1init" 08H
                                         02H 12H 00H 82H 06H 00H 00H 01H
                                   64   CSTRUCTTAG 0000H 0000H 0000H 0008H 0000
                                        0001H "_Notag"
                                   65   CSTRUCTMEM 52H 00000001H 00000000H "b0"
                                         02H 00H 00H
                                   66   CSTRUCTMEM 52H 00000001H 00000001H "b1"
                                         02H 00H 00H
                                   67   CSTRUCTMEM 52H 00000001H 00000002H "b2"
                                         02H 00H 00H
                                   68   CSTRUCTMEM 52H 00000001H 00000003H "b3"
                                         02H 00H 00H
                                   69   CSTRUCTMEM 52H 00000001H 00000004H "b4"
                                         02H 00H 00H
                                   70   CSTRUCTMEM 52H 00000001H 00000005H "b5"
                                         02H 00H 00H
                                   71   CSTRUCTMEM 52H 00000001H 00000006H "b6"
                                         02H 00H 00H
                                   72   CSTRUCTMEM 52H 00000001H 00000007H "b7"
                                         02H 00H 00H
                                   73   CTYPEDEF 0000H 0000H 42H "uint8" 02H 00
                                        H 00H
                                   74   CTYPEDEF 0000H 0000H 42H "DWORD" 02H 00
                                        H 02H
                                   75   CTYPEDEF 0000H 0000H 43H "INT8" 02H 00H
                                         00H
                                   76   CTYPEDEF 0000H 0000H 42H "uint32" 02H 0
                                        0H 02H
                                   77   CTYPEDEF 0000H 0000H 42H "uint16" 02H 0
                                        0H 01H
                                   78   CTYPEDEF 0000H 0000H 42H "byte" 02H 00H
                                         00H
                                   79   CTYPEDEF 0000H 0000H 43H "INT32" 02H 00
                                        H 02H
                                   80   CTYPEDEF 0000H 0000H 43H "INT16" 02H 00
                                        H 01H
                                   81   CTYPEDEF 0000H 0000H 42H "dword" 02H 00
                                        H 02H
                                   82   CTYPEDEF 0000H 0000H 43H "int8" 02H 00H
                                         00H
                                   83   CTYPEDEF 0000H 0000H 42H "UINT" 02H 00H
                                         01H
                                   84   CTYPEDEF 0000H 0000H 42H "WORD" 02H 00H
RASU8(ML610409)Relocatable Assembler, Ver.1.70.0    assemble list. page:   4 
 Title : 
## Loc. Object                   Line   Source Statements

                                         01H
                                   85   CTYPEDEF 0000H 0000H 43H "int16" 02H 00
                                        H 01H
                                   86   CTYPEDEF 0000H 0000H 43H "int32" 02H 00
                                        H 02H
                                   87   CTYPEDEF 0000H 0000H 42H "UINT8" 02H 00
                                        H 00H
                                   88   CTYPEDEF 0000H 0000H 42H "uint" 02H 00H
                                         01H
                                   89   CTYPEDEF 0000H 0000H 42H "uchar" 02H 00
                                        H 00H
                                   90   CTYPEDEF 0000H 0000H 42H "UINT16" 02H 0
                                        0H 01H
                                   91   CTYPEDEF 0000H 0000H 42H "UINT32" 02H 0
                                        0H 02H
                                   92   CTYPEDEF 0000H 0000H 42H "word" 02H 00H
                                         01H
                                   93   CTYPEDEF 0000H 0000H 42H "BOOL" 02H 00H
                                         00H
                                   94   CTYPEDEF 0000H 0000H 42H "BYTE" 02H 00H
                                         00H
                                   95   CTYPEDEF 0000H 0000H 43H "_BYTE_FIELD" 
                                        04H 00H 05H 00H 00H
                                   96   CFILE 0001H 00000822H "E:\\IDEU8\\Inc\\
                                        m610409.h"
                                   97   CFILE 0002H 00000063H "port\\port.h"
                                   98   CFILE 0003H 00000022H "MACROA~1\\MacroA
                                        ndConst.h"
                                   99   CFILE 0000H 00000434H "port\\port.c"
                                  100   
  --------------------------      101   	rseg $$P0D_init$port
                                  102   CFUNCTION 0
                                  103   
00:0000                           104   _P0D_init	:
                                  105   CBLOCK 0 1 29
                                  106   
                                  107   ;; {
                                  108   CLINEA 0000H 0001H 001DH 0002H 0002H
00:0000 5E-FE                     109   	push	fp
00:0002 1A-AE                     110   	mov	fp,	sp
00:0004 6E-F8                     111   	push	xr8
00:0006 05-F8                     112   	mov	er8,	er0
00:0008 25-FA                     113   	mov	er10,	er2
                                  114   CBLOCK 0 2 29
                                  115   CARGUMENT 46H 0002H 0028H "bit0" 02H 00
                                        H 01H
                                  116   CARGUMENT 46H 0002H 0029H "bit1" 02H 00
                                        H 01H
                                  117   CARGUMENT 42H 0002H 0002H "bit2" 02H 00
                                        H 01H
                                  118   CARGUMENT 42H 0002H 0004H "bit3" 02H 00
                                        H 01H
                                  119   CARGUMENT 42H 0002H 0006H "bit4" 02H 00
                                        H 01H
                                  120   
                                  121   ;;        bit4 > PORT_HIGH) {
RASU8(ML610409)Relocatable Assembler, Ver.1.70.0    assemble list. page:   5 
 Title : 
## Loc. Object                   Line   Source Statements

                                  122   CLINEA 0000H 0001H 0020H 0009H 001BH
00:000A 01 70                     123   	cmp	r0,	#01h
00:000C 00 51                     124   	cmpc	r1,	#00h
00:000E 0F C2                     125   	bgt	_$L2
00:0010 01 72                     126   	cmp	r2,	#01h
00:0012 00 53                     127   	cmpc	r3,	#00h
00:0014 0C C2                     128   	bgt	_$L2
00:0016 42 B0                     129   	l	er0,	2[fp]
00:0018 01 70                     130   	cmp	r0,	#01h
00:001A 00 51                     131   	cmpc	r1,	#00h
00:001C 08 C2                     132   	bgt	_$L2
00:001E 44 B0                     133   	l	er0,	4[fp]
00:0020 01 70                     134   	cmp	r0,	#01h
00:0022 00 51                     135   	cmpc	r1,	#00h
00:0024 04 C2                     136   	bgt	_$L2
00:0026 46 B0                     137   	l	er0,	6[fp]
00:0028 01 70                     138   	cmp	r0,	#01h
00:002A 00 51                     139   	cmpc	r1,	#00h
00:002C 05 C3                     140   	ble	_$L1
00:002E                           141   _$L2 :
                                  142   CBLOCK 0 3 32
                                  143   
                                  144   ;;       	 return (PORT_DEPLOY_FA
                                        IL);
                                  145   CLINEA 0000H 0001H 0021H 000AH 0023H
00:002E 7F E0                     146   	mov	er0,	#-1
                                  147   CBLOCKEND 0 3 34
                                  148   CBLOCKEND 0 2 39
                                  149   
                                  150   ;;  }
                                  151   CLINEA 0000H 0001H 0027H 0003H 0003H
00:0030                           152   _$L0 :
00:0030 2E-F8                     153   	pop	xr8
00:0032 EA-A1                     154   	mov	sp,	fp
00:0034 1E-FE                     155   	pop	fp
00:0036 1F-FE                     156   	rt
                                  157   
                                  158   ;;        }
                                  159   CLINEA 0000H 0000H 0022H 0009H 0009H
00:0038                           160   _$L1 :
                                  161   
                                  162   ;;	P00D = bit0; P01D = bit1;
                                  163   CLINEA 0000H 0001H 0023H 0002H 001AH
00:0038 80-80                     164   	mov	r0,	r8
00:003A 01 20                     165   	and	r0,	#01h
00:003C 03 C9                     166   	beq	_$M1
00:003E 80-A0 04-F2               167   	sb	0f204h.0
 ** Warning 25: illegal access to SFR
00:0042 02 CE                     168   	bal	_$M2
00:0044                           169   _$M1 :
00:0044 82-A0 04-F2               170   	rb	0f204h.0
 ** Warning 25: illegal access to SFR
00:0048                           171   _$M2 :
00:0048 A0-80                     172   	mov	r0,	r10
00:004A 01 20                     173   	and	r0,	#01h
00:004C 03 C9                     174   	beq	_$M3
RASU8(ML610409)Relocatable Assembler, Ver.1.70.0    assemble list. page:   6 
 Title : 
## Loc. Object                   Line   Source Statements

00:004E 90-A0 04-F2               175   	sb	0f204h.1
 ** Warning 25: illegal access to SFR
00:0052 02 CE                     176   	bal	_$M4
00:0054                           177   _$M3 :
00:0054 92-A0 04-F2               178   	rb	0f204h.1
 ** Warning 25: illegal access to SFR
00:0058                           179   _$M4 :
                                  180   
                                  181   ;;	P02D = bit2; P03D = bit3;
                                  182   CLINEA 0000H 0001H 0024H 0002H 001AH
00:0058 42 D0                     183   	l	r0,	2[fp]
00:005A 01 20                     184   	and	r0,	#01h
00:005C 03 C9                     185   	beq	_$M5
00:005E A0-A0 04-F2               186   	sb	0f204h.2
 ** Warning 25: illegal access to SFR
00:0062 02 CE                     187   	bal	_$M6
00:0064                           188   _$M5 :
00:0064 A2-A0 04-F2               189   	rb	0f204h.2
 ** Warning 25: illegal access to SFR
00:0068                           190   _$M6 :
00:0068 44 D0                     191   	l	r0,	4[fp]
00:006A 01 20                     192   	and	r0,	#01h
00:006C 03 C9                     193   	beq	_$M7
00:006E B0-A0 04-F2               194   	sb	0f204h.3
 ** Warning 25: illegal access to SFR
00:0072 02 CE                     195   	bal	_$M8
00:0074                           196   _$M7 :
00:0074 B2-A0 04-F2               197   	rb	0f204h.3
 ** Warning 25: illegal access to SFR
00:0078                           198   _$M8 :
                                  199   
                                  200   ;;	P04D = bit4;
                                  201   CLINEA 0000H 0001H 0025H 0002H 000DH
00:0078 46 D0                     202   	l	r0,	6[fp]
00:007A 01 20                     203   	and	r0,	#01h
00:007C 03 C9                     204   	beq	_$M9
00:007E C0-A0 04-F2               205   	sb	0f204h.4
 ** Warning 25: illegal access to SFR
00:0082 02 CE                     206   	bal	_$M10
00:0084                           207   _$M9 :
00:0084 C2-A0 04-F2               208   	rb	0f204h.4
 ** Warning 25: illegal access to SFR
00:0088                           209   _$M10 :
                                  210   
                                  211   ;;   return (PORT_DEPLOY_OK);
                                  212   CLINEA 0000H 0001H 0026H 0004H 001BH
00:0088 00 E0                     213   	mov	er0,	#0 
00:008A D2 CE                     214   	bal	_$L0
                                  215   CBLOCKEND 0 1 39
                                  216   CFUNCTIONEND 0
                                  217   
                                  218   
  --------------------------      219   	rseg $$PCON_0init$port
                                  220   CFUNCTION 1
                                  221   
00:0000                           222   _PCON_0init	:
RASU8(ML610409)Relocatable Assembler, Ver.1.70.0    assemble list. page:   7 
 Title : 
## Loc. Object                   Line   Source Statements

                                  223   CBLOCK 1 1 63
                                  224   
                                  225   ;; {
                                  226   CLINEA 0000H 0001H 003FH 0002H 0002H
00:0000 5E-FE                     227   	push	fp
00:0002 1A-AE                     228   	mov	fp,	sp
00:0004 6E-F8                     229   	push	xr8
00:0006 05-F8                     230   	mov	er8,	er0
00:0008 25-FA                     231   	mov	er10,	er2
                                  232   CBLOCK 1 2 63
                                  233   CARGUMENT 46H 0002H 0028H "bit0" 02H 00
                                        H 01H
                                  234   CARGUMENT 46H 0002H 0029H "bit1" 02H 00
                                        H 01H
                                  235   CARGUMENT 42H 0002H 0002H "bit2" 02H 00
                                        H 01H
                                  236   CARGUMENT 42H 0002H 0004H "bit3" 02H 00
                                        H 01H
                                  237   CARGUMENT 42H 0002H 0006H "bit4" 02H 00
                                        H 01H
                                  238   
                                  239   ;;        bit4 > PORT_HIGH) {
                                  240   CLINEA 0000H 0001H 0042H 0009H 001BH
00:000A 01 70                     241   	cmp	r0,	#01h
00:000C 00 51                     242   	cmpc	r1,	#00h
00:000E 0F C2                     243   	bgt	_$L19
00:0010 01 72                     244   	cmp	r2,	#01h
00:0012 00 53                     245   	cmpc	r3,	#00h
00:0014 0C C2                     246   	bgt	_$L19
00:0016 42 B0                     247   	l	er0,	2[fp]
00:0018 01 70                     248   	cmp	r0,	#01h
00:001A 00 51                     249   	cmpc	r1,	#00h
00:001C 08 C2                     250   	bgt	_$L19
00:001E 44 B0                     251   	l	er0,	4[fp]
00:0020 01 70                     252   	cmp	r0,	#01h
00:0022 00 51                     253   	cmpc	r1,	#00h
00:0024 04 C2                     254   	bgt	_$L19
00:0026 46 B0                     255   	l	er0,	6[fp]
00:0028 01 70                     256   	cmp	r0,	#01h
00:002A 00 51                     257   	cmpc	r1,	#00h
00:002C 05 C3                     258   	ble	_$L18
00:002E                           259   _$L19 :
                                  260   CBLOCK 1 3 66
                                  261   
                                  262   ;;       	 return (PORT_DEPLOY_FA
                                        IL);
                                  263   CLINEA 0000H 0001H 0043H 000AH 0023H
00:002E 7F E0                     264   	mov	er0,	#-1
                                  265   CBLOCKEND 1 3 68
                                  266   CBLOCKEND 1 2 73
                                  267   
                                  268   ;;  }
                                  269   CLINEA 0000H 0001H 0049H 0003H 0003H
00:0030                           270   _$L17 :
00:0030 2E-F8                     271   	pop	xr8
00:0032 EA-A1                     272   	mov	sp,	fp
RASU8(ML610409)Relocatable Assembler, Ver.1.70.0    assemble list. page:   8 
 Title : 
## Loc. Object                   Line   Source Statements

00:0034 1E-FE                     273   	pop	fp
00:0036 1F-FE                     274   	rt
                                  275   
                                  276   ;;        }  
                                  277   CLINEA 0000H 0000H 0044H 0009H 000BH
00:0038                           278   _$L18 :
                                  279   
                                  280   ;;	P00C0 = bit0; P01C0 = bit1;
                                  281   CLINEA 0000H 0001H 0045H 0002H 001CH
00:0038 80-80                     282   	mov	r0,	r8
00:003A 01 20                     283   	and	r0,	#01h
00:003C 03 C9                     284   	beq	_$M12
00:003E 80-A0 06-F2               285   	sb	0f206h.0
00:0042 02 CE                     286   	bal	_$M13
00:0044                           287   _$M12 :
00:0044 82-A0 06-F2               288   	rb	0f206h.0
00:0048                           289   _$M13 :
00:0048 A0-80                     290   	mov	r0,	r10
00:004A 01 20                     291   	and	r0,	#01h
00:004C 03 C9                     292   	beq	_$M14
00:004E 90-A0 06-F2               293   	sb	0f206h.1
00:0052 02 CE                     294   	bal	_$M15
00:0054                           295   _$M14 :
00:0054 92-A0 06-F2               296   	rb	0f206h.1
00:0058                           297   _$M15 :
                                  298   
                                  299   ;;	P02C0 = bit2; P03C0 = bit3;
                                  300   CLINEA 0000H 0001H 0046H 0002H 001CH
00:0058 42 D0                     301   	l	r0,	2[fp]
00:005A 01 20                     302   	and	r0,	#01h
00:005C 03 C9                     303   	beq	_$M16
00:005E A0-A0 06-F2               304   	sb	0f206h.2
00:0062 02 CE                     305   	bal	_$M17
00:0064                           306   _$M16 :
00:0064 A2-A0 06-F2               307   	rb	0f206h.2
00:0068                           308   _$M17 :
00:0068 44 D0                     309   	l	r0,	4[fp]
00:006A 01 20                     310   	and	r0,	#01h
00:006C 03 C9                     311   	beq	_$M18
00:006E B0-A0 06-F2               312   	sb	0f206h.3
00:0072 02 CE                     313   	bal	_$M19
00:0074                           314   _$M18 :
00:0074 B2-A0 06-F2               315   	rb	0f206h.3
00:0078                           316   _$M19 :
                                  317   
                                  318   ;;	P04C0 = bit4;
                                  319   CLINEA 0000H 0001H 0047H 0002H 000EH
00:0078 46 D0                     320   	l	r0,	6[fp]
00:007A 01 20                     321   	and	r0,	#01h
00:007C 03 C9                     322   	beq	_$M20
00:007E C0-A0 06-F2               323   	sb	0f206h.4
00:0082 02 CE                     324   	bal	_$M21
00:0084                           325   _$M20 :
00:0084 C2-A0 06-F2               326   	rb	0f206h.4
00:0088                           327   _$M21 :
                                  328   
RASU8(ML610409)Relocatable Assembler, Ver.1.70.0    assemble list. page:   9 
 Title : 
## Loc. Object                   Line   Source Statements

                                  329   ;;   return (PORT_DEPLOY_OK);		
                                         	
                                  330   CLINEA 0000H 0001H 0048H 0004H 001FH
00:0088 00 E0                     331   	mov	er0,	#0 
00:008A D2 CE                     332   	bal	_$L17
                                  333   CBLOCKEND 1 1 73
                                  334   CFUNCTIONEND 1
                                  335   
                                  336   
  --------------------------      337   	rseg $$PCON_1init$port
                                  338   CFUNCTION 2
                                  339   
00:0000                           340   _PCON_1init	:
                                  341   CBLOCK 2 1 97
                                  342   
                                  343   ;; {
                                  344   CLINEA 0000H 0001H 0061H 0002H 0002H
00:0000 5E-FE                     345   	push	fp
00:0002 1A-AE                     346   	mov	fp,	sp
00:0004 6E-F8                     347   	push	xr8
00:0006 05-F8                     348   	mov	er8,	er0
00:0008 25-FA                     349   	mov	er10,	er2
                                  350   CBLOCK 2 2 97
                                  351   CARGUMENT 46H 0002H 0028H "bit0" 02H 00
                                        H 01H
                                  352   CARGUMENT 46H 0002H 0029H "bit1" 02H 00
                                        H 01H
                                  353   CARGUMENT 42H 0002H 0002H "bit2" 02H 00
                                        H 01H
                                  354   CARGUMENT 42H 0002H 0004H "bit3" 02H 00
                                        H 01H
                                  355   CARGUMENT 42H 0002H 0006H "bit4" 02H 00
                                        H 01H
                                  356   
                                  357   ;;        bit4 > PORT_HIGH) {
                                  358   CLINEA 0000H 0001H 0064H 0009H 001BH
00:000A 01 70                     359   	cmp	r0,	#01h
00:000C 00 51                     360   	cmpc	r1,	#00h
00:000E 0F C2                     361   	bgt	_$L36
00:0010 01 72                     362   	cmp	r2,	#01h
00:0012 00 53                     363   	cmpc	r3,	#00h
00:0014 0C C2                     364   	bgt	_$L36
00:0016 42 B0                     365   	l	er0,	2[fp]
00:0018 01 70                     366   	cmp	r0,	#01h
00:001A 00 51                     367   	cmpc	r1,	#00h
00:001C 08 C2                     368   	bgt	_$L36
00:001E 44 B0                     369   	l	er0,	4[fp]
00:0020 01 70                     370   	cmp	r0,	#01h
00:0022 00 51                     371   	cmpc	r1,	#00h
00:0024 04 C2                     372   	bgt	_$L36
00:0026 46 B0                     373   	l	er0,	6[fp]
00:0028 01 70                     374   	cmp	r0,	#01h
00:002A 00 51                     375   	cmpc	r1,	#00h
00:002C 05 C3                     376   	ble	_$L35
00:002E                           377   _$L36 :
                                  378   CBLOCK 2 3 100
RASU8(ML610409)Relocatable Assembler, Ver.1.70.0    assemble list. page:  10 
 Title : 
## Loc. Object                   Line   Source Statements

                                  379   
                                  380   ;;       	 return (PORT_DEPLOY_FA
                                        IL);
                                  381   CLINEA 0000H 0001H 0065H 000AH 0023H
00:002E 7F E0                     382   	mov	er0,	#-1
                                  383   CBLOCKEND 2 3 102
                                  384   CBLOCKEND 2 2 107
                                  385   
                                  386   ;;  }
                                  387   CLINEA 0000H 0001H 006BH 0003H 0003H
00:0030                           388   _$L34 :
00:0030 2E-F8                     389   	pop	xr8
00:0032 EA-A1                     390   	mov	sp,	fp
00:0034 1E-FE                     391   	pop	fp
00:0036 1F-FE                     392   	rt
                                  393   
                                  394   ;;        }  
                                  395   CLINEA 0000H 0000H 0066H 0009H 000BH
00:0038                           396   _$L35 :
                                  397   
                                  398   ;;	P00C1 = bit0; P01C1 = bit1;
                                  399   CLINEA 0000H 0001H 0067H 0002H 001CH
00:0038 80-80                     400   	mov	r0,	r8
00:003A 01 20                     401   	and	r0,	#01h
00:003C 03 C9                     402   	beq	_$M23
00:003E 80-A0 07-F2               403   	sb	0f207h.0
00:0042 02 CE                     404   	bal	_$M24
00:0044                           405   _$M23 :
00:0044 82-A0 07-F2               406   	rb	0f207h.0
00:0048                           407   _$M24 :
00:0048 A0-80                     408   	mov	r0,	r10
00:004A 01 20                     409   	and	r0,	#01h
00:004C 03 C9                     410   	beq	_$M25
00:004E 90-A0 07-F2               411   	sb	0f207h.1
00:0052 02 CE                     412   	bal	_$M26
00:0054                           413   _$M25 :
00:0054 92-A0 07-F2               414   	rb	0f207h.1
00:0058                           415   _$M26 :
                                  416   
                                  417   ;;	P02C1 = bit2; P03C1 = bit3;
                                  418   CLINEA 0000H 0001H 0068H 0002H 001CH
00:0058 42 D0                     419   	l	r0,	2[fp]
00:005A 01 20                     420   	and	r0,	#01h
00:005C 03 C9                     421   	beq	_$M27
00:005E A0-A0 07-F2               422   	sb	0f207h.2
00:0062 02 CE                     423   	bal	_$M28
00:0064                           424   _$M27 :
00:0064 A2-A0 07-F2               425   	rb	0f207h.2
00:0068                           426   _$M28 :
00:0068 44 D0                     427   	l	r0,	4[fp]
00:006A 01 20                     428   	and	r0,	#01h
00:006C 03 C9                     429   	beq	_$M29
00:006E B0-A0 07-F2               430   	sb	0f207h.3
00:0072 02 CE                     431   	bal	_$M30
00:0074                           432   _$M29 :
00:0074 B2-A0 07-F2               433   	rb	0f207h.3
RASU8(ML610409)Relocatable Assembler, Ver.1.70.0    assemble list. page:  11 
 Title : 
## Loc. Object                   Line   Source Statements

00:0078                           434   _$M30 :
                                  435   
                                  436   ;;	P04C1 = bit4;
                                  437   CLINEA 0000H 0001H 0069H 0002H 000EH
00:0078 46 D0                     438   	l	r0,	6[fp]
00:007A 01 20                     439   	and	r0,	#01h
00:007C 03 C9                     440   	beq	_$M31
00:007E C0-A0 07-F2               441   	sb	0f207h.4
00:0082 02 CE                     442   	bal	_$M32
00:0084                           443   _$M31 :
00:0084 C2-A0 07-F2               444   	rb	0f207h.4
00:0088                           445   _$M32 :
                                  446   
                                  447   ;;   return (PORT_DEPLOY_OK);		
                                         	
                                  448   CLINEA 0000H 0001H 006AH 0004H 001FH
00:0088 00 E0                     449   	mov	er0,	#0 
00:008A D2 CE                     450   	bal	_$L34
                                  451   CBLOCKEND 2 1 107
                                  452   CFUNCTIONEND 2
                                  453   
                                  454   
  --------------------------      455   	rseg $$EXICON_0init$port
                                  456   CFUNCTION 3
                                  457   
00:0000                           458   _EXICON_0init	:
                                  459   CBLOCK 3 1 130
                                  460   
                                  461   ;; {
                                  462   CLINEA 0000H 0001H 0082H 0002H 0002H
00:0000 5E-FE                     463   	push	fp
00:0002 1A-AE                     464   	mov	fp,	sp
00:0004 6E-F8                     465   	push	xr8
00:0006 05-F8                     466   	mov	er8,	er0
00:0008 25-FA                     467   	mov	er10,	er2
                                  468   CBLOCK 3 2 130
                                  469   CARGUMENT 46H 0002H 0028H "bit0" 02H 00
                                        H 01H
                                  470   CARGUMENT 46H 0002H 0029H "bit1" 02H 00
                                        H 01H
                                  471   CARGUMENT 42H 0002H 0002H "bit2" 02H 00
                                        H 01H
                                  472   CARGUMENT 42H 0002H 0004H "bit3" 02H 00
                                        H 01H
                                  473   CARGUMENT 42H 0002H 0006H "bit4" 02H 00
                                        H 01H
                                  474   
                                  475   ;;        bit4 > PORT_HIGH) {
                                  476   CLINEA 0000H 0001H 0085H 0009H 001BH
00:000A 01 70                     477   	cmp	r0,	#01h
00:000C 00 51                     478   	cmpc	r1,	#00h
00:000E 0F C2                     479   	bgt	_$L53
00:0010 01 72                     480   	cmp	r2,	#01h
00:0012 00 53                     481   	cmpc	r3,	#00h
00:0014 0C C2                     482   	bgt	_$L53
00:0016 42 B0                     483   	l	er0,	2[fp]
RASU8(ML610409)Relocatable Assembler, Ver.1.70.0    assemble list. page:  12 
 Title : 
## Loc. Object                   Line   Source Statements

00:0018 01 70                     484   	cmp	r0,	#01h
00:001A 00 51                     485   	cmpc	r1,	#00h
00:001C 08 C2                     486   	bgt	_$L53
00:001E 44 B0                     487   	l	er0,	4[fp]
00:0020 01 70                     488   	cmp	r0,	#01h
00:0022 00 51                     489   	cmpc	r1,	#00h
00:0024 04 C2                     490   	bgt	_$L53
00:0026 46 B0                     491   	l	er0,	6[fp]
00:0028 01 70                     492   	cmp	r0,	#01h
00:002A 00 51                     493   	cmpc	r1,	#00h
00:002C 05 C3                     494   	ble	_$L52
00:002E                           495   _$L53 :
                                  496   CBLOCK 3 3 133
                                  497   
                                  498   ;;       	 return (PORT_DEPLOY_FA
                                        IL);
                                  499   CLINEA 0000H 0001H 0086H 000AH 0023H
00:002E 7F E0                     500   	mov	er0,	#-1
                                  501   CBLOCKEND 3 3 135
                                  502   CBLOCKEND 3 2 140
                                  503   
                                  504   ;;  }
                                  505   CLINEA 0000H 0001H 008CH 0003H 0003H
00:0030                           506   _$L51 :
00:0030 2E-F8                     507   	pop	xr8
00:0032 EA-A1                     508   	mov	sp,	fp
00:0034 1E-FE                     509   	pop	fp
00:0036 1F-FE                     510   	rt
                                  511   
                                  512   ;;        }  
                                  513   CLINEA 0000H 0000H 0087H 0009H 000BH
00:0038                           514   _$L52 :
                                  515   
                                  516   ;;	P00E0 = bit0; P01E0 = bit1;
                                  517   CLINEA 0000H 0001H 0088H 0002H 001CH
00:0038 80-80                     518   	mov	r0,	r8
00:003A 01 20                     519   	and	r0,	#01h
00:003C 03 C9                     520   	beq	_$M34
00:003E 80-A0 20-F0               521   	sb	0f020h.0
00:0042 02 CE                     522   	bal	_$M35
00:0044                           523   _$M34 :
00:0044 82-A0 20-F0               524   	rb	0f020h.0
00:0048                           525   _$M35 :
00:0048 A0-80                     526   	mov	r0,	r10
00:004A 01 20                     527   	and	r0,	#01h
00:004C 03 C9                     528   	beq	_$M36
00:004E 90-A0 20-F0               529   	sb	0f020h.1
00:0052 02 CE                     530   	bal	_$M37
00:0054                           531   _$M36 :
00:0054 92-A0 20-F0               532   	rb	0f020h.1
00:0058                           533   _$M37 :
                                  534   
                                  535   ;;	P02E0 = bit2; P03E0 = bit3;
                                  536   CLINEA 0000H 0001H 0089H 0002H 001CH
00:0058 42 D0                     537   	l	r0,	2[fp]
00:005A 01 20                     538   	and	r0,	#01h
RASU8(ML610409)Relocatable Assembler, Ver.1.70.0    assemble list. page:  13 
 Title : 
## Loc. Object                   Line   Source Statements

00:005C 03 C9                     539   	beq	_$M38
00:005E A0-A0 20-F0               540   	sb	0f020h.2
00:0062 02 CE                     541   	bal	_$M39
00:0064                           542   _$M38 :
00:0064 A2-A0 20-F0               543   	rb	0f020h.2
00:0068                           544   _$M39 :
00:0068 44 D0                     545   	l	r0,	4[fp]
00:006A 01 20                     546   	and	r0,	#01h
00:006C 03 C9                     547   	beq	_$M40
00:006E B0-A0 20-F0               548   	sb	0f020h.3
00:0072 02 CE                     549   	bal	_$M41
00:0074                           550   _$M40 :
00:0074 B2-A0 20-F0               551   	rb	0f020h.3
00:0078                           552   _$M41 :
                                  553   
                                  554   ;;	P04E0 = bit4;
                                  555   CLINEA 0000H 0001H 008AH 0002H 000EH
00:0078 46 D0                     556   	l	r0,	6[fp]
00:007A 01 20                     557   	and	r0,	#01h
00:007C 03 C9                     558   	beq	_$M42
00:007E C0-A0 20-F0               559   	sb	0f020h.4
00:0082 02 CE                     560   	bal	_$M43
00:0084                           561   _$M42 :
00:0084 C2-A0 20-F0               562   	rb	0f020h.4
00:0088                           563   _$M43 :
                                  564   
                                  565   ;;   return (PORT_DEPLOY_OK);		
                                         	
                                  566   CLINEA 0000H 0001H 008BH 0004H 001FH
00:0088 00 E0                     567   	mov	er0,	#0 
00:008A D2 CE                     568   	bal	_$L51
                                  569   CBLOCKEND 3 1 140
                                  570   CFUNCTIONEND 3
                                  571   
                                  572   
  --------------------------      573   	rseg $$EXICON_1init$port
                                  574   CFUNCTION 4
                                  575   
00:0000                           576   _EXICON_1init	:
                                  577   CBLOCK 4 1 164
                                  578   
                                  579   ;; {
                                  580   CLINEA 0000H 0001H 00A4H 0002H 0002H
00:0000 5E-FE                     581   	push	fp
00:0002 1A-AE                     582   	mov	fp,	sp
00:0004 6E-F8                     583   	push	xr8
00:0006 05-F8                     584   	mov	er8,	er0
00:0008 25-FA                     585   	mov	er10,	er2
                                  586   CBLOCK 4 2 164
                                  587   CARGUMENT 46H 0002H 0028H "bit0" 02H 00
                                        H 01H
                                  588   CARGUMENT 46H 0002H 0029H "bit1" 02H 00
                                        H 01H
                                  589   CARGUMENT 42H 0002H 0002H "bit2" 02H 00
                                        H 01H
                                  590   CARGUMENT 42H 0002H 0004H "bit3" 02H 00
RASU8(ML610409)Relocatable Assembler, Ver.1.70.0    assemble list. page:  14 
 Title : 
## Loc. Object                   Line   Source Statements

                                        H 01H
                                  591   CARGUMENT 42H 0002H 0006H "bit4" 02H 00
                                        H 01H
                                  592   
                                  593   ;;        bit4 > PORT_HIGH) {
                                  594   CLINEA 0000H 0001H 00A7H 0009H 001BH
00:000A 01 70                     595   	cmp	r0,	#01h
00:000C 00 51                     596   	cmpc	r1,	#00h
00:000E 0F C2                     597   	bgt	_$L70
00:0010 01 72                     598   	cmp	r2,	#01h
00:0012 00 53                     599   	cmpc	r3,	#00h
00:0014 0C C2                     600   	bgt	_$L70
00:0016 42 B0                     601   	l	er0,	2[fp]
00:0018 01 70                     602   	cmp	r0,	#01h
00:001A 00 51                     603   	cmpc	r1,	#00h
00:001C 08 C2                     604   	bgt	_$L70
00:001E 44 B0                     605   	l	er0,	4[fp]
00:0020 01 70                     606   	cmp	r0,	#01h
00:0022 00 51                     607   	cmpc	r1,	#00h
00:0024 04 C2                     608   	bgt	_$L70
00:0026 46 B0                     609   	l	er0,	6[fp]
00:0028 01 70                     610   	cmp	r0,	#01h
00:002A 00 51                     611   	cmpc	r1,	#00h
00:002C 05 C3                     612   	ble	_$L69
00:002E                           613   _$L70 :
                                  614   CBLOCK 4 3 167
                                  615   
                                  616   ;;       	 return (PORT_DEPLOY_FA
                                        IL);
                                  617   CLINEA 0000H 0001H 00A8H 000AH 0023H
00:002E 7F E0                     618   	mov	er0,	#-1
                                  619   CBLOCKEND 4 3 169
                                  620   CBLOCKEND 4 2 174
                                  621   
                                  622   ;;  }
                                  623   CLINEA 0000H 0001H 00AEH 0003H 0003H
00:0030                           624   _$L68 :
00:0030 2E-F8                     625   	pop	xr8
00:0032 EA-A1                     626   	mov	sp,	fp
00:0034 1E-FE                     627   	pop	fp
00:0036 1F-FE                     628   	rt
                                  629   
                                  630   ;;        }  
                                  631   CLINEA 0000H 0000H 00A9H 0009H 000BH
00:0038                           632   _$L69 :
                                  633   
                                  634   ;;	P00E1 = bit0; P01E1 = bit1;
                                  635   CLINEA 0000H 0001H 00AAH 0002H 001CH
00:0038 80-80                     636   	mov	r0,	r8
00:003A 01 20                     637   	and	r0,	#01h
00:003C 03 C9                     638   	beq	_$M45
00:003E 80-A0 21-F0               639   	sb	0f021h.0
00:0042 02 CE                     640   	bal	_$M46
00:0044                           641   _$M45 :
00:0044 82-A0 21-F0               642   	rb	0f021h.0
00:0048                           643   _$M46 :
RASU8(ML610409)Relocatable Assembler, Ver.1.70.0    assemble list. page:  15 
 Title : 
## Loc. Object                   Line   Source Statements

00:0048 A0-80                     644   	mov	r0,	r10
00:004A 01 20                     645   	and	r0,	#01h
00:004C 03 C9                     646   	beq	_$M47
00:004E 90-A0 21-F0               647   	sb	0f021h.1
00:0052 02 CE                     648   	bal	_$M48
00:0054                           649   _$M47 :
00:0054 92-A0 21-F0               650   	rb	0f021h.1
00:0058                           651   _$M48 :
                                  652   
                                  653   ;;	P02E1 = bit2; P03E1 = bit3;
                                  654   CLINEA 0000H 0001H 00ABH 0002H 001CH
00:0058 42 D0                     655   	l	r0,	2[fp]
00:005A 01 20                     656   	and	r0,	#01h
00:005C 03 C9                     657   	beq	_$M49
00:005E A0-A0 21-F0               658   	sb	0f021h.2
00:0062 02 CE                     659   	bal	_$M50
00:0064                           660   _$M49 :
00:0064 A2-A0 21-F0               661   	rb	0f021h.2
00:0068                           662   _$M50 :
00:0068 44 D0                     663   	l	r0,	4[fp]
00:006A 01 20                     664   	and	r0,	#01h
00:006C 03 C9                     665   	beq	_$M51
00:006E B0-A0 21-F0               666   	sb	0f021h.3
00:0072 02 CE                     667   	bal	_$M52
00:0074                           668   _$M51 :
00:0074 B2-A0 21-F0               669   	rb	0f021h.3
00:0078                           670   _$M52 :
                                  671   
                                  672   ;;	P04E1 = bit4;
                                  673   CLINEA 0000H 0001H 00ACH 0002H 000EH
00:0078 46 D0                     674   	l	r0,	6[fp]
00:007A 01 20                     675   	and	r0,	#01h
00:007C 03 C9                     676   	beq	_$M53
00:007E C0-A0 21-F0               677   	sb	0f021h.4
00:0082 02 CE                     678   	bal	_$M54
00:0084                           679   _$M53 :
00:0084 C2-A0 21-F0               680   	rb	0f021h.4
00:0088                           681   _$M54 :
                                  682   
                                  683   ;;   return (PORT_DEPLOY_OK);		
                                         	
                                  684   CLINEA 0000H 0001H 00ADH 0004H 001FH
00:0088 00 E0                     685   	mov	er0,	#0 
00:008A D2 CE                     686   	bal	_$L68
                                  687   CBLOCKEND 4 1 174
                                  688   CFUNCTIONEND 4
                                  689   
                                  690   
  --------------------------      691   	rseg $$EXICON_2init$port
                                  692   CFUNCTION 5
                                  693   
00:0000                           694   _EXICON_2init	:
                                  695   CBLOCK 5 1 197
                                  696   
                                  697   ;; {
                                  698   CLINEA 0000H 0001H 00C5H 0002H 0002H
RASU8(ML610409)Relocatable Assembler, Ver.1.70.0    assemble list. page:  16 
 Title : 
## Loc. Object                   Line   Source Statements

00:0000 5E-FE                     699   	push	fp
00:0002 1A-AE                     700   	mov	fp,	sp
00:0004 6E-F8                     701   	push	xr8
00:0006 05-F8                     702   	mov	er8,	er0
00:0008 25-FA                     703   	mov	er10,	er2
                                  704   CBLOCK 5 2 197
                                  705   CARGUMENT 46H 0002H 0028H "bit0" 02H 00
                                        H 01H
                                  706   CARGUMENT 46H 0002H 0029H "bit1" 02H 00
                                        H 01H
                                  707   CARGUMENT 42H 0002H 0002H "bit2" 02H 00
                                        H 01H
                                  708   CARGUMENT 42H 0002H 0004H "bit3" 02H 00
                                        H 01H
                                  709   CARGUMENT 42H 0002H 0006H "bit4" 02H 00
                                        H 01H
                                  710   
                                  711   ;;        bit4 > PORT_HIGH) {
                                  712   CLINEA 0000H 0001H 00C8H 0009H 001BH
00:000A 01 70                     713   	cmp	r0,	#01h
00:000C 00 51                     714   	cmpc	r1,	#00h
00:000E 0F C2                     715   	bgt	_$L87
00:0010 01 72                     716   	cmp	r2,	#01h
00:0012 00 53                     717   	cmpc	r3,	#00h
00:0014 0C C2                     718   	bgt	_$L87
00:0016 42 B0                     719   	l	er0,	2[fp]
00:0018 01 70                     720   	cmp	r0,	#01h
00:001A 00 51                     721   	cmpc	r1,	#00h
00:001C 08 C2                     722   	bgt	_$L87
00:001E 44 B0                     723   	l	er0,	4[fp]
00:0020 01 70                     724   	cmp	r0,	#01h
00:0022 00 51                     725   	cmpc	r1,	#00h
00:0024 04 C2                     726   	bgt	_$L87
00:0026 46 B0                     727   	l	er0,	6[fp]
00:0028 01 70                     728   	cmp	r0,	#01h
00:002A 00 51                     729   	cmpc	r1,	#00h
00:002C 05 C3                     730   	ble	_$L86
00:002E                           731   _$L87 :
                                  732   CBLOCK 5 3 200
                                  733   
                                  734   ;;       	 return (PORT_DEPLOY_FA
                                        IL);
                                  735   CLINEA 0000H 0001H 00C9H 000AH 0023H
00:002E 7F E0                     736   	mov	er0,	#-1
                                  737   CBLOCKEND 5 3 202
                                  738   CBLOCKEND 5 2 207
                                  739   
                                  740   ;;  }
                                  741   CLINEA 0000H 0001H 00CFH 0003H 0003H
00:0030                           742   _$L85 :
00:0030 2E-F8                     743   	pop	xr8
00:0032 EA-A1                     744   	mov	sp,	fp
00:0034 1E-FE                     745   	pop	fp
00:0036 1F-FE                     746   	rt
                                  747   
                                  748   ;;        }  
RASU8(ML610409)Relocatable Assembler, Ver.1.70.0    assemble list. page:  17 
 Title : 
## Loc. Object                   Line   Source Statements

                                  749   CLINEA 0000H 0000H 00CAH 0009H 000BH
00:0038                           750   _$L86 :
                                  751   
                                  752   ;;	P00SM = bit0; P01SM = bit1;
                                  753   CLINEA 0000H 0001H 00CBH 0002H 001CH
00:0038 80-80                     754   	mov	r0,	r8
00:003A 01 20                     755   	and	r0,	#01h
00:003C 03 C9                     756   	beq	_$M56
00:003E 80-A0 22-F0               757   	sb	0f022h.0
00:0042 02 CE                     758   	bal	_$M57
00:0044                           759   _$M56 :
00:0044 82-A0 22-F0               760   	rb	0f022h.0
00:0048                           761   _$M57 :
00:0048 A0-80                     762   	mov	r0,	r10
00:004A 01 20                     763   	and	r0,	#01h
00:004C 03 C9                     764   	beq	_$M58
00:004E 90-A0 22-F0               765   	sb	0f022h.1
00:0052 02 CE                     766   	bal	_$M59
00:0054                           767   _$M58 :
00:0054 92-A0 22-F0               768   	rb	0f022h.1
00:0058                           769   _$M59 :
                                  770   
                                  771   ;;	P02SM = bit2; P03SM = bit3;
                                  772   CLINEA 0000H 0001H 00CCH 0002H 001CH
00:0058 42 D0                     773   	l	r0,	2[fp]
00:005A 01 20                     774   	and	r0,	#01h
00:005C 03 C9                     775   	beq	_$M60
00:005E A0-A0 22-F0               776   	sb	0f022h.2
00:0062 02 CE                     777   	bal	_$M61
00:0064                           778   _$M60 :
00:0064 A2-A0 22-F0               779   	rb	0f022h.2
00:0068                           780   _$M61 :
00:0068 44 D0                     781   	l	r0,	4[fp]
00:006A 01 20                     782   	and	r0,	#01h
00:006C 03 C9                     783   	beq	_$M62
00:006E B0-A0 22-F0               784   	sb	0f022h.3
00:0072 02 CE                     785   	bal	_$M63
00:0074                           786   _$M62 :
00:0074 B2-A0 22-F0               787   	rb	0f022h.3
00:0078                           788   _$M63 :
                                  789   
                                  790   ;;	P04SM = bit4;
                                  791   CLINEA 0000H 0001H 00CDH 0002H 000EH
00:0078 46 D0                     792   	l	r0,	6[fp]
00:007A 01 20                     793   	and	r0,	#01h
00:007C 03 C9                     794   	beq	_$M64
00:007E C0-A0 22-F0               795   	sb	0f022h.4
00:0082 02 CE                     796   	bal	_$M65
00:0084                           797   _$M64 :
00:0084 C2-A0 22-F0               798   	rb	0f022h.4
00:0088                           799   _$M65 :
                                  800   
                                  801   ;;   return (PORT_DEPLOY_OK);		
                                         	
                                  802   CLINEA 0000H 0001H 00CEH 0004H 001FH
00:0088 00 E0                     803   	mov	er0,	#0 
RASU8(ML610409)Relocatable Assembler, Ver.1.70.0    assemble list. page:  18 
 Title : 
## Loc. Object                   Line   Source Statements

00:008A D2 CE                     804   	bal	_$L85
                                  805   CBLOCKEND 5 1 207
                                  806   CFUNCTIONEND 5
                                  807   
                                  808   
  --------------------------      809   	rseg $$P2D_init$port
                                  810   CFUNCTION 6
                                  811   
00:0000                           812   _P2D_init	:
                                  813   CBLOCK 6 1 231
                                  814   
                                  815   ;; {
                                  816   CLINEA 0000H 0001H 00E7H 0002H 0002H
00:0000 5E-FE                     817   	push	fp
00:0002 1A-AE                     818   	mov	fp,	sp
00:0004 6E-F8                     819   	push	xr8
00:0006 05-F8                     820   	mov	er8,	er0
00:0008 25-FA                     821   	mov	er10,	er2
                                  822   CBLOCK 6 2 231
                                  823   CARGUMENT 46H 0002H 0028H "bit0" 02H 00
                                        H 01H
                                  824   CARGUMENT 46H 0002H 0029H "bit1" 02H 00
                                        H 01H
                                  825   CARGUMENT 42H 0002H 0002H "bit2" 02H 00
                                        H 01H
                                  826   CARGUMENT 42H 0002H 0004H "bit4" 02H 00
                                        H 01H
                                  827   
                                  828   ;;       bit2 > PORT_HIGH || bit4 > POR
                                        T_HIGH) {
                                  829   CLINEA 0000H 0001H 00E9H 0008H 002EH
00:000A 01 70                     830   	cmp	r0,	#01h
00:000C 00 51                     831   	cmpc	r1,	#00h
00:000E 0B C2                     832   	bgt	_$L104
00:0010 01 72                     833   	cmp	r2,	#01h
00:0012 00 53                     834   	cmpc	r3,	#00h
00:0014 08 C2                     835   	bgt	_$L104
00:0016 42 B0                     836   	l	er0,	2[fp]
00:0018 01 70                     837   	cmp	r0,	#01h
00:001A 00 51                     838   	cmpc	r1,	#00h
00:001C 04 C2                     839   	bgt	_$L104
00:001E 44 B0                     840   	l	er0,	4[fp]
00:0020 01 70                     841   	cmp	r0,	#01h
00:0022 00 51                     842   	cmpc	r1,	#00h
00:0024 05 C3                     843   	ble	_$L103
00:0026                           844   _$L104 :
                                  845   CBLOCK 6 3 233
                                  846   
                                  847   ;;       	 return (PORT_DEPLOY_FA
                                        IL);
                                  848   CLINEA 0000H 0001H 00EAH 000AH 0023H
00:0026 7F E0                     849   	mov	er0,	#-1
                                  850   CBLOCKEND 6 3 235
                                  851   CBLOCKEND 6 2 239
                                  852   
                                  853   ;;  }
RASU8(ML610409)Relocatable Assembler, Ver.1.70.0    assemble list. page:  19 
 Title : 
## Loc. Object                   Line   Source Statements

                                  854   CLINEA 0000H 0001H 00EFH 0003H 0003H
00:0028                           855   _$L102 :
00:0028 2E-F8                     856   	pop	xr8
00:002A EA-A1                     857   	mov	sp,	fp
00:002C 1E-FE                     858   	pop	fp
00:002E 1F-FE                     859   	rt
                                  860   
                                  861   ;;        }   	
                                  862   CLINEA 0000H 0000H 00EBH 0009H 000DH
00:0030                           863   _$L103 :
                                  864   
                                  865   ;;	P20D = bit0; P21D = bit1;
                                  866   CLINEA 0000H 0001H 00ECH 0002H 001AH
00:0030 80-80                     867   	mov	r0,	r8
00:0032 01 20                     868   	and	r0,	#01h
00:0034 03 C9                     869   	beq	_$M67
00:0036 80-A0 10-F2               870   	sb	0f210h.0
00:003A 02 CE                     871   	bal	_$M68
00:003C                           872   _$M67 :
00:003C 82-A0 10-F2               873   	rb	0f210h.0
00:0040                           874   _$M68 :
00:0040 A0-80                     875   	mov	r0,	r10
00:0042 01 20                     876   	and	r0,	#01h
00:0044 03 C9                     877   	beq	_$M69
00:0046 90-A0 10-F2               878   	sb	0f210h.1
00:004A 02 CE                     879   	bal	_$M70
00:004C                           880   _$M69 :
00:004C 92-A0 10-F2               881   	rb	0f210h.1
00:0050                           882   _$M70 :
                                  883   
                                  884   ;;	P22D = bit2; P24D = bit4;
                                  885   CLINEA 0000H 0001H 00EDH 0002H 001AH
00:0050 42 D0                     886   	l	r0,	2[fp]
00:0052 01 20                     887   	and	r0,	#01h
00:0054 03 C9                     888   	beq	_$M71
00:0056 A0-A0 10-F2               889   	sb	0f210h.2
00:005A 02 CE                     890   	bal	_$M72
00:005C                           891   _$M71 :
00:005C A2-A0 10-F2               892   	rb	0f210h.2
00:0060                           893   _$M72 :
00:0060 44 D0                     894   	l	r0,	4[fp]
00:0062 01 20                     895   	and	r0,	#01h
00:0064 03 C9                     896   	beq	_$M73
00:0066 C0-A0 10-F2               897   	sb	0f210h.4
00:006A 02 CE                     898   	bal	_$M74
00:006C                           899   _$M73 :
00:006C C2-A0 10-F2               900   	rb	0f210h.4
00:0070                           901   _$M74 :
                                  902   
                                  903   ;;   return (PORT_DEPLOY_OK);    
                                  904   CLINEA 0000H 0001H 00EEH 0004H 001FH
00:0070 00 E0                     905   	mov	er0,	#0 
00:0072 DA CE                     906   	bal	_$L102
                                  907   CBLOCKEND 6 1 239
                                  908   CFUNCTIONEND 6
                                  909   
RASU8(ML610409)Relocatable Assembler, Ver.1.70.0    assemble list. page:  20 
 Title : 
## Loc. Object                   Line   Source Statements

                                  910   
  --------------------------      911   	rseg $$P2CON_0init$port
                                  912   CFUNCTION 7
                                  913   
00:0000                           914   _P2CON_0init	:
                                  915   CBLOCK 7 1 259
                                  916   
                                  917   ;; {
                                  918   CLINEA 0000H 0001H 0103H 0002H 0002H
00:0000 5E-FE                     919   	push	fp
00:0002 1A-AE                     920   	mov	fp,	sp
00:0004 6E-F8                     921   	push	xr8
00:0006 05-F8                     922   	mov	er8,	er0
00:0008 25-FA                     923   	mov	er10,	er2
                                  924   CBLOCK 7 2 259
                                  925   CARGUMENT 46H 0002H 0028H "bit0" 02H 00
                                        H 01H
                                  926   CARGUMENT 46H 0002H 0029H "bit1" 02H 00
                                        H 01H
                                  927   CARGUMENT 42H 0002H 0002H "bit2" 02H 00
                                        H 01H
                                  928   CARGUMENT 42H 0002H 0004H "bit3" 02H 00
                                        H 01H
                                  929   CARGUMENT 42H 0002H 0006H "bit4" 02H 00
                                        H 01H
                                  930   
                                  931   ;;       bit2 > PORT_HIGH || bit4 > POR
                                        T_HIGH) {
                                  932   CLINEA 0000H 0001H 0105H 0008H 002EH
00:000A 01 70                     933   	cmp	r0,	#01h
00:000C 00 51                     934   	cmpc	r1,	#00h
00:000E 0B C2                     935   	bgt	_$L118
00:0010 01 72                     936   	cmp	r2,	#01h
00:0012 00 53                     937   	cmpc	r3,	#00h
00:0014 08 C2                     938   	bgt	_$L118
00:0016 42 B0                     939   	l	er0,	2[fp]
00:0018 01 70                     940   	cmp	r0,	#01h
00:001A 00 51                     941   	cmpc	r1,	#00h
00:001C 04 C2                     942   	bgt	_$L118
00:001E 46 B0                     943   	l	er0,	6[fp]
00:0020 01 70                     944   	cmp	r0,	#01h
00:0022 00 51                     945   	cmpc	r1,	#00h
00:0024 05 C3                     946   	ble	_$L117
00:0026                           947   _$L118 :
                                  948   CBLOCK 7 3 261
                                  949   
                                  950   ;;       	 return (PORT_DEPLOY_FA
                                        IL);
                                  951   CLINEA 0000H 0001H 0106H 000AH 0023H
00:0026 7F E0                     952   	mov	er0,	#-1
                                  953   CBLOCKEND 7 3 263
                                  954   CBLOCKEND 7 2 267
                                  955   
                                  956   ;;  }
                                  957   CLINEA 0000H 0001H 010BH 0003H 0003H
00:0028                           958   _$L116 :
RASU8(ML610409)Relocatable Assembler, Ver.1.70.0    assemble list. page:  21 
 Title : 
## Loc. Object                   Line   Source Statements

00:0028 2E-F8                     959   	pop	xr8
00:002A EA-A1                     960   	mov	sp,	fp
00:002C 1E-FE                     961   	pop	fp
00:002E 1F-FE                     962   	rt
                                  963   
                                  964   ;;        }  
                                  965   CLINEA 0000H 0000H 0107H 0009H 000BH
00:0030                           966   _$L117 :
                                  967   
                                  968   ;;	P20C0 = bit0; P21C0 = bit1;
                                  969   CLINEA 0000H 0001H 0108H 0002H 001CH
00:0030 80-80                     970   	mov	r0,	r8
00:0032 01 20                     971   	and	r0,	#01h
00:0034 03 C9                     972   	beq	_$M76
00:0036 80-A0 12-F2               973   	sb	0f212h.0
00:003A 02 CE                     974   	bal	_$M77
00:003C                           975   _$M76 :
00:003C 82-A0 12-F2               976   	rb	0f212h.0
00:0040                           977   _$M77 :
00:0040 A0-80                     978   	mov	r0,	r10
00:0042 01 20                     979   	and	r0,	#01h
00:0044 03 C9                     980   	beq	_$M78
00:0046 90-A0 12-F2               981   	sb	0f212h.1
00:004A 02 CE                     982   	bal	_$M79
00:004C                           983   _$M78 :
00:004C 92-A0 12-F2               984   	rb	0f212h.1
00:0050                           985   _$M79 :
                                  986   
                                  987   ;;	P22C0 = bit2; P24C0 = bit4;
                                  988   CLINEA 0000H 0001H 0109H 0002H 001CH
00:0050 42 D0                     989   	l	r0,	2[fp]
00:0052 01 20                     990   	and	r0,	#01h
00:0054 03 C9                     991   	beq	_$M80
00:0056 A0-A0 12-F2               992   	sb	0f212h.2
00:005A 02 CE                     993   	bal	_$M81
00:005C                           994   _$M80 :
00:005C A2-A0 12-F2               995   	rb	0f212h.2
00:0060                           996   _$M81 :
00:0060 46 D0                     997   	l	r0,	6[fp]
00:0062 01 20                     998   	and	r0,	#01h
00:0064 03 C9                     999   	beq	_$M82
00:0066 C0-A0 12-F2              1000   	sb	0f212h.4
00:006A 02 CE                    1001   	bal	_$M83
00:006C                          1002   _$M82 :
00:006C C2-A0 12-F2              1003   	rb	0f212h.4
00:0070                          1004   _$M83 :
                                 1005   
                                 1006   ;;   return (PORT_DEPLOY_OK);		
                                         	
                                 1007   CLINEA 0000H 0001H 010AH 0004H 001FH
00:0070 00 E0                    1008   	mov	er0,	#0 
00:0072 DA CE                    1009   	bal	_$L116
                                 1010   CBLOCKEND 7 1 267
                                 1011   CFUNCTIONEND 7
                                 1012   
                                 1013   
RASU8(ML610409)Relocatable Assembler, Ver.1.70.0    assemble list. page:  22 
 Title : 
## Loc. Object                   Line   Source Statements

  --------------------------     1014   	rseg $$P2CON_1init$port
                                 1015   CFUNCTION 8
                                 1016   
00:0000                          1017   _P2CON_1init	:
                                 1018   CBLOCK 8 1 287
                                 1019   
                                 1020   ;; {
                                 1021   CLINEA 0000H 0001H 011FH 0002H 0002H
00:0000 5E-FE                    1022   	push	fp
00:0002 1A-AE                    1023   	mov	fp,	sp
00:0004 6E-F8                    1024   	push	xr8
00:0006 05-F8                    1025   	mov	er8,	er0
00:0008 25-FA                    1026   	mov	er10,	er2
                                 1027   CBLOCK 8 2 287
                                 1028   CARGUMENT 46H 0002H 0028H "bit0" 02H 00
                                        H 01H
                                 1029   CARGUMENT 46H 0002H 0029H "bit1" 02H 00
                                        H 01H
                                 1030   CARGUMENT 42H 0002H 0002H "bit2" 02H 00
                                        H 01H
                                 1031   CARGUMENT 42H 0002H 0004H "bit3" 02H 00
                                        H 01H
                                 1032   CARGUMENT 42H 0002H 0006H "bit4" 02H 00
                                        H 01H
                                 1033   
                                 1034   ;;       bit2 > PORT_HIGH || bit4 > POR
                                        T_HIGH) {
                                 1035   CLINEA 0000H 0001H 0121H 0008H 002EH
00:000A 01 70                    1036   	cmp	r0,	#01h
00:000C 00 51                    1037   	cmpc	r1,	#00h
00:000E 0B C2                    1038   	bgt	_$L132
00:0010 01 72                    1039   	cmp	r2,	#01h
00:0012 00 53                    1040   	cmpc	r3,	#00h
00:0014 08 C2                    1041   	bgt	_$L132
00:0016 42 B0                    1042   	l	er0,	2[fp]
00:0018 01 70                    1043   	cmp	r0,	#01h
00:001A 00 51                    1044   	cmpc	r1,	#00h
00:001C 04 C2                    1045   	bgt	_$L132
00:001E 46 B0                    1046   	l	er0,	6[fp]
00:0020 01 70                    1047   	cmp	r0,	#01h
00:0022 00 51                    1048   	cmpc	r1,	#00h
00:0024 05 C3                    1049   	ble	_$L131
00:0026                          1050   _$L132 :
                                 1051   CBLOCK 8 3 289
                                 1052   
                                 1053   ;;       	 return (PORT_DEPLOY_FA
                                        IL);
                                 1054   CLINEA 0000H 0001H 0122H 000AH 0023H
00:0026 7F E0                    1055   	mov	er0,	#-1
                                 1056   CBLOCKEND 8 3 291
                                 1057   CBLOCKEND 8 2 295
                                 1058   
                                 1059   ;;  }
                                 1060   CLINEA 0000H 0001H 0127H 0003H 0003H
00:0028                          1061   _$L130 :
00:0028 2E-F8                    1062   	pop	xr8
RASU8(ML610409)Relocatable Assembler, Ver.1.70.0    assemble list. page:  23 
 Title : 
## Loc. Object                   Line   Source Statements

00:002A EA-A1                    1063   	mov	sp,	fp
00:002C 1E-FE                    1064   	pop	fp
00:002E 1F-FE                    1065   	rt
                                 1066   
                                 1067   ;;        }  
                                 1068   CLINEA 0000H 0000H 0123H 0009H 000BH
00:0030                          1069   _$L131 :
                                 1070   
                                 1071   ;;	P20C1 = bit0; P21C1 = bit1;
                                 1072   CLINEA 0000H 0001H 0124H 0002H 001CH
00:0030 80-80                    1073   	mov	r0,	r8
00:0032 01 20                    1074   	and	r0,	#01h
00:0034 03 C9                    1075   	beq	_$M85
00:0036 80-A0 13-F2              1076   	sb	0f213h.0
00:003A 02 CE                    1077   	bal	_$M86
00:003C                          1078   _$M85 :
00:003C 82-A0 13-F2              1079   	rb	0f213h.0
00:0040                          1080   _$M86 :
00:0040 A0-80                    1081   	mov	r0,	r10
00:0042 01 20                    1082   	and	r0,	#01h
00:0044 03 C9                    1083   	beq	_$M87
00:0046 90-A0 13-F2              1084   	sb	0f213h.1
00:004A 02 CE                    1085   	bal	_$M88
00:004C                          1086   _$M87 :
00:004C 92-A0 13-F2              1087   	rb	0f213h.1
00:0050                          1088   _$M88 :
                                 1089   
                                 1090   ;;	P22C1 = bit2; P24C1 = bit4;
                                 1091   CLINEA 0000H 0001H 0125H 0002H 001CH
00:0050 42 D0                    1092   	l	r0,	2[fp]
00:0052 01 20                    1093   	and	r0,	#01h
00:0054 03 C9                    1094   	beq	_$M89
00:0056 A0-A0 13-F2              1095   	sb	0f213h.2
00:005A 02 CE                    1096   	bal	_$M90
00:005C                          1097   _$M89 :
00:005C A2-A0 13-F2              1098   	rb	0f213h.2
00:0060                          1099   _$M90 :
00:0060 46 D0                    1100   	l	r0,	6[fp]
00:0062 01 20                    1101   	and	r0,	#01h
00:0064 03 C9                    1102   	beq	_$M91
00:0066 C0-A0 13-F2              1103   	sb	0f213h.4
00:006A 02 CE                    1104   	bal	_$M92
00:006C                          1105   _$M91 :
00:006C C2-A0 13-F2              1106   	rb	0f213h.4
00:0070                          1107   _$M92 :
                                 1108   
                                 1109   ;;   return (PORT_DEPLOY_OK);		
                                         	
                                 1110   CLINEA 0000H 0001H 0126H 0004H 001FH
00:0070 00 E0                    1111   	mov	er0,	#0 
00:0072 DA CE                    1112   	bal	_$L130
                                 1113   CBLOCKEND 8 1 295
                                 1114   CFUNCTIONEND 8
                                 1115   
                                 1116   
  --------------------------     1117   	rseg $$P2MOD_init$port
RASU8(ML610409)Relocatable Assembler, Ver.1.70.0    assemble list. page:  24 
 Title : 
## Loc. Object                   Line   Source Statements

                                 1118   CFUNCTION 9
                                 1119   
00:0000                          1120   _P2MOD_init	:
                                 1121   CBLOCK 9 1 315
                                 1122   
                                 1123   ;; {
                                 1124   CLINEA 0000H 0001H 013BH 0002H 0002H
00:0000 5E-FE                    1125   	push	fp
00:0002 1A-AE                    1126   	mov	fp,	sp
00:0004 6E-F8                    1127   	push	xr8
00:0006 05-F8                    1128   	mov	er8,	er0
00:0008 25-FA                    1129   	mov	er10,	er2
                                 1130   CBLOCK 9 2 315
                                 1131   CARGUMENT 46H 0002H 0028H "bit0" 02H 00
                                        H 01H
                                 1132   CARGUMENT 46H 0002H 0029H "bit1" 02H 00
                                        H 01H
                                 1133   CARGUMENT 42H 0002H 0002H "bit2" 02H 00
                                        H 01H
                                 1134   CARGUMENT 42H 0002H 0004H "bit4" 02H 00
                                        H 01H
                                 1135   
                                 1136   ;;       bit2 > PORT_HIGH || bit4 > POR
                                        T_HIGH) {
                                 1137   CLINEA 0000H 0001H 013DH 0008H 002EH
00:000A 01 70                    1138   	cmp	r0,	#01h
00:000C 00 51                    1139   	cmpc	r1,	#00h
00:000E 0B C2                    1140   	bgt	_$L146
00:0010 01 72                    1141   	cmp	r2,	#01h
00:0012 00 53                    1142   	cmpc	r3,	#00h
00:0014 08 C2                    1143   	bgt	_$L146
00:0016 42 B0                    1144   	l	er0,	2[fp]
00:0018 01 70                    1145   	cmp	r0,	#01h
00:001A 00 51                    1146   	cmpc	r1,	#00h
00:001C 04 C2                    1147   	bgt	_$L146
00:001E 44 B0                    1148   	l	er0,	4[fp]
00:0020 01 70                    1149   	cmp	r0,	#01h
00:0022 00 51                    1150   	cmpc	r1,	#00h
00:0024 05 C3                    1151   	ble	_$L145
00:0026                          1152   _$L146 :
                                 1153   CBLOCK 9 3 317
                                 1154   
                                 1155   ;;       	 return (PORT_DEPLOY_FA
                                        IL);
                                 1156   CLINEA 0000H 0001H 013EH 000AH 0023H
00:0026 7F E0                    1157   	mov	er0,	#-1
                                 1158   CBLOCKEND 9 3 319
                                 1159   CBLOCKEND 9 2 323
                                 1160   
                                 1161   ;;  }
                                 1162   CLINEA 0000H 0001H 0143H 0003H 0003H
00:0028                          1163   _$L144 :
00:0028 2E-F8                    1164   	pop	xr8
00:002A EA-A1                    1165   	mov	sp,	fp
00:002C 1E-FE                    1166   	pop	fp
00:002E 1F-FE                    1167   	rt
RASU8(ML610409)Relocatable Assembler, Ver.1.70.0    assemble list. page:  25 
 Title : 
## Loc. Object                   Line   Source Statements

                                 1168   
                                 1169   ;;        }  
                                 1170   CLINEA 0000H 0000H 013FH 0009H 000BH
00:0030                          1171   _$L145 :
                                 1172   
                                 1173   ;;	P20MD = bit0; P21MD = bit1;
                                 1174   CLINEA 0000H 0001H 0140H 0002H 001CH
00:0030 80-80                    1175   	mov	r0,	r8
00:0032 01 20                    1176   	and	r0,	#01h
00:0034 03 C9                    1177   	beq	_$M94
00:0036 80-A0 14-F2              1178   	sb	0f214h.0
00:003A 02 CE                    1179   	bal	_$M95
00:003C                          1180   _$M94 :
00:003C 82-A0 14-F2              1181   	rb	0f214h.0
00:0040                          1182   _$M95 :
00:0040 A0-80                    1183   	mov	r0,	r10
00:0042 01 20                    1184   	and	r0,	#01h
00:0044 03 C9                    1185   	beq	_$M96
00:0046 90-A0 14-F2              1186   	sb	0f214h.1
00:004A 02 CE                    1187   	bal	_$M97
00:004C                          1188   _$M96 :
00:004C 92-A0 14-F2              1189   	rb	0f214h.1
00:0050                          1190   _$M97 :
                                 1191   
                                 1192   ;;	P22MD = bit2; P24MD = bit4;
                                 1193   CLINEA 0000H 0001H 0141H 0002H 001CH
00:0050 42 D0                    1194   	l	r0,	2[fp]
00:0052 01 20                    1195   	and	r0,	#01h
00:0054 03 C9                    1196   	beq	_$M98
00:0056 A0-A0 14-F2              1197   	sb	0f214h.2
00:005A 02 CE                    1198   	bal	_$M99
00:005C                          1199   _$M98 :
00:005C A2-A0 14-F2              1200   	rb	0f214h.2
00:0060                          1201   _$M99 :
00:0060 44 D0                    1202   	l	r0,	4[fp]
00:0062 01 20                    1203   	and	r0,	#01h
00:0064 03 C9                    1204   	beq	_$M100
00:0066 C0-A0 14-F2              1205   	sb	0f214h.4
00:006A 02 CE                    1206   	bal	_$M101
00:006C                          1207   _$M100 :
00:006C C2-A0 14-F2              1208   	rb	0f214h.4
00:0070                          1209   _$M101 :
                                 1210   
                                 1211   ;;   return (PORT_DEPLOY_OK);	   	
                                 1212   CLINEA 0000H 0001H 0142H 0004H 0020H
00:0070 00 E0                    1213   	mov	er0,	#0 
00:0072 DA CE                    1214   	bal	_$L144
                                 1215   CBLOCKEND 9 1 323
                                 1216   CFUNCTIONEND 9
                                 1217   
                                 1218   
  --------------------------     1219   	rseg $$P3D_init$port
                                 1220   CFUNCTION 10
                                 1221   
00:0000                          1222   _P3D_init	:
                                 1223   CBLOCK 10 1 356
RASU8(ML610409)Relocatable Assembler, Ver.1.70.0    assemble list. page:  26 
 Title : 
## Loc. Object                   Line   Source Statements

                                 1224   
                                 1225   ;;{
                                 1226   CLINEA 0000H 0001H 0164H 0001H 0001H
00:0000 5E-FE                    1227   	push	fp
00:0002 1A-AE                    1228   	mov	fp,	sp
00:0004 6E-F8                    1229   	push	xr8
00:0006 05-F8                    1230   	mov	er8,	er0
00:0008 25-FA                    1231   	mov	er10,	er2
                                 1232   CBLOCK 10 2 356
                                 1233   CARGUMENT 46H 0002H 0028H "bit0" 02H 00
                                        H 01H
                                 1234   CARGUMENT 46H 0002H 0029H "bit1" 02H 00
                                        H 01H
                                 1235   CARGUMENT 42H 0002H 0002H "bit2" 02H 00
                                        H 01H
                                 1236   CARGUMENT 42H 0002H 0004H "bit3" 02H 00
                                        H 01H
                                 1237   CARGUMENT 42H 0002H 0006H "bit4" 02H 00
                                        H 01H
                                 1238   CARGUMENT 42H 0002H 0008H "bit5" 02H 00
                                        H 01H
                                 1239   
                                 1240   ;;	   	bit4 > PORT_HIGH || bit
                                        5 > PORT_HIGH) {
                                 1241   CLINEA 0000H 0001H 0167H 0006H 002CH
00:000A 01 70                    1242   	cmp	r0,	#01h
00:000C 00 51                    1243   	cmpc	r1,	#00h
00:000E 13 C2                    1244   	bgt	_$L160
00:0010 01 72                    1245   	cmp	r2,	#01h
00:0012 00 53                    1246   	cmpc	r3,	#00h
00:0014 10 C2                    1247   	bgt	_$L160
00:0016 42 B0                    1248   	l	er0,	2[fp]
00:0018 01 70                    1249   	cmp	r0,	#01h
00:001A 00 51                    1250   	cmpc	r1,	#00h
00:001C 0C C2                    1251   	bgt	_$L160
00:001E 44 B0                    1252   	l	er0,	4[fp]
00:0020 01 70                    1253   	cmp	r0,	#01h
00:0022 00 51                    1254   	cmpc	r1,	#00h
00:0024 08 C2                    1255   	bgt	_$L160
00:0026 46 B0                    1256   	l	er0,	6[fp]
00:0028 01 70                    1257   	cmp	r0,	#01h
00:002A 00 51                    1258   	cmpc	r1,	#00h
00:002C 04 C2                    1259   	bgt	_$L160
00:002E 48 B0                    1260   	l	er0,	8[fp]
00:0030 01 70                    1261   	cmp	r0,	#01h
00:0032 00 51                    1262   	cmpc	r1,	#00h
00:0034 05 C3                    1263   	ble	_$L159
00:0036                          1264   _$L160 :
                                 1265   CBLOCK 10 3 359
                                 1266   
                                 1267   ;;       	 return (PORT_DEPLOY_FA
                                        IL); 
                                 1268   CLINEA 0000H 0001H 0168H 000AH 0024H
00:0036 7F E0                    1269   	mov	er0,	#-1
                                 1270   CBLOCKEND 10 3 361
                                 1271   CBLOCKEND 10 2 366
RASU8(ML610409)Relocatable Assembler, Ver.1.70.0    assemble list. page:  27 
 Title : 
## Loc. Object                   Line   Source Statements

                                 1272   
                                 1273   ;;  }
                                 1274   CLINEA 0000H 0001H 016EH 0003H 0003H
00:0038                          1275   _$L158 :
00:0038 2E-F8                    1276   	pop	xr8
00:003A EA-A1                    1277   	mov	sp,	fp
00:003C 1E-FE                    1278   	pop	fp
00:003E 1F-FE                    1279   	rt
                                 1280   
                                 1281   ;;	   	}
                                 1282   CLINEA 0000H 0000H 0169H 0006H 0006H
00:0040                          1283   _$L159 :
                                 1284   
                                 1285   ;;	P30D = bit0; P31D = bit1;
                                 1286   CLINEA 0000H 0001H 016AH 0002H 001AH
00:0040 80-80                    1287   	mov	r0,	r8
00:0042 01 20                    1288   	and	r0,	#01h
00:0044 03 C9                    1289   	beq	_$M103
00:0046 80-A0 18-F2              1290   	sb	0f218h.0
00:004A 02 CE                    1291   	bal	_$M104
00:004C                          1292   _$M103 :
00:004C 82-A0 18-F2              1293   	rb	0f218h.0
00:0050                          1294   _$M104 :
00:0050 A0-80                    1295   	mov	r0,	r10
00:0052 01 20                    1296   	and	r0,	#01h
00:0054 03 C9                    1297   	beq	_$M105
00:0056 90-A0 18-F2              1298   	sb	0f218h.1
00:005A 02 CE                    1299   	bal	_$M106
00:005C                          1300   _$M105 :
00:005C 92-A0 18-F2              1301   	rb	0f218h.1
00:0060                          1302   _$M106 :
                                 1303   
                                 1304   ;;	P32D = bit2; P33D = bit3;
                                 1305   CLINEA 0000H 0001H 016BH 0002H 001AH
00:0060 42 D0                    1306   	l	r0,	2[fp]
00:0062 01 20                    1307   	and	r0,	#01h
00:0064 03 C9                    1308   	beq	_$M107
00:0066 A0-A0 18-F2              1309   	sb	0f218h.2
00:006A 02 CE                    1310   	bal	_$M108
00:006C                          1311   _$M107 :
00:006C A2-A0 18-F2              1312   	rb	0f218h.2
00:0070                          1313   _$M108 :
00:0070 44 D0                    1314   	l	r0,	4[fp]
00:0072 01 20                    1315   	and	r0,	#01h
00:0074 03 C9                    1316   	beq	_$M109
00:0076 B0-A0 18-F2              1317   	sb	0f218h.3
00:007A 02 CE                    1318   	bal	_$M110
00:007C                          1319   _$M109 :
00:007C B2-A0 18-F2              1320   	rb	0f218h.3
00:0080                          1321   _$M110 :
                                 1322   
                                 1323   ;;	P34D = bit4; P35D = bit5;
                                 1324   CLINEA 0000H 0001H 016CH 0002H 001AH
00:0080 46 D0                    1325   	l	r0,	6[fp]
00:0082 01 20                    1326   	and	r0,	#01h
00:0084 03 C9                    1327   	beq	_$M111
RASU8(ML610409)Relocatable Assembler, Ver.1.70.0    assemble list. page:  28 
 Title : 
## Loc. Object                   Line   Source Statements

00:0086 C0-A0 18-F2              1328   	sb	0f218h.4
00:008A 02 CE                    1329   	bal	_$M112
00:008C                          1330   _$M111 :
00:008C C2-A0 18-F2              1331   	rb	0f218h.4
00:0090                          1332   _$M112 :
00:0090 48 D0                    1333   	l	r0,	8[fp]
00:0092 01 20                    1334   	and	r0,	#01h
00:0094 03 C9                    1335   	beq	_$M113
00:0096 D0-A0 18-F2              1336   	sb	0f218h.5
00:009A 02 CE                    1337   	bal	_$M114
00:009C                          1338   _$M113 :
00:009C D2-A0 18-F2              1339   	rb	0f218h.5
00:00A0                          1340   _$M114 :
                                 1341   
                                 1342   ;;   return (PORT_DEPLOY_OK);		
                                 1343   CLINEA 0000H 0001H 016DH 0004H 001DH
00:00A0 00 E0                    1344   	mov	er0,	#0 
00:00A2 CA CE                    1345   	bal	_$L158
                                 1346   CBLOCKEND 10 1 366
                                 1347   CFUNCTIONEND 10
                                 1348   
                                 1349   
  --------------------------     1350   	rseg $$P3DIR_init$port
                                 1351   CFUNCTION 11
                                 1352   
00:0000                          1353   _P3DIR_init	:
                                 1354   CBLOCK 11 1 393
                                 1355   
                                 1356   ;; {
                                 1357   CLINEA 0000H 0001H 0189H 0002H 0002H
00:0000 5E-FE                    1358   	push	fp
00:0002 1A-AE                    1359   	mov	fp,	sp
00:0004 6E-F8                    1360   	push	xr8
00:0006 05-F8                    1361   	mov	er8,	er0
00:0008 25-FA                    1362   	mov	er10,	er2
                                 1363   CBLOCK 11 2 393
                                 1364   CARGUMENT 46H 0002H 0028H "bit0" 02H 00
                                        H 01H
                                 1365   CARGUMENT 46H 0002H 0029H "bit1" 02H 00
                                        H 01H
                                 1366   CARGUMENT 42H 0002H 0002H "bit2" 02H 00
                                        H 01H
                                 1367   CARGUMENT 42H 0002H 0004H "bit3" 02H 00
                                        H 01H
                                 1368   CARGUMENT 42H 0002H 0006H "bit4" 02H 00
                                        H 01H
                                 1369   CARGUMENT 42H 0002H 0008H "bit5" 02H 00
                                        H 01H
                                 1370   
                                 1371   ;;	   	bit4 > PORT_HIGH || bit
                                        5 > PORT_HIGH) {
                                 1372   CLINEA 0000H 0001H 018CH 0006H 002CH
00:000A 01 70                    1373   	cmp	r0,	#01h
00:000C 00 51                    1374   	cmpc	r1,	#00h
00:000E 13 C2                    1375   	bgt	_$L180
00:0010 01 72                    1376   	cmp	r2,	#01h
RASU8(ML610409)Relocatable Assembler, Ver.1.70.0    assemble list. page:  29 
 Title : 
## Loc. Object                   Line   Source Statements

00:0012 00 53                    1377   	cmpc	r3,	#00h
00:0014 10 C2                    1378   	bgt	_$L180
00:0016 42 B0                    1379   	l	er0,	2[fp]
00:0018 01 70                    1380   	cmp	r0,	#01h
00:001A 00 51                    1381   	cmpc	r1,	#00h
00:001C 0C C2                    1382   	bgt	_$L180
00:001E 44 B0                    1383   	l	er0,	4[fp]
00:0020 01 70                    1384   	cmp	r0,	#01h
00:0022 00 51                    1385   	cmpc	r1,	#00h
00:0024 08 C2                    1386   	bgt	_$L180
00:0026 46 B0                    1387   	l	er0,	6[fp]
00:0028 01 70                    1388   	cmp	r0,	#01h
00:002A 00 51                    1389   	cmpc	r1,	#00h
00:002C 04 C2                    1390   	bgt	_$L180
00:002E 48 B0                    1391   	l	er0,	8[fp]
00:0030 01 70                    1392   	cmp	r0,	#01h
00:0032 00 51                    1393   	cmpc	r1,	#00h
00:0034 05 C3                    1394   	ble	_$L179
00:0036                          1395   _$L180 :
                                 1396   CBLOCK 11 3 396
                                 1397   
                                 1398   ;;       	 return (PORT_DEPLOY_FA
                                        IL); 
                                 1399   CLINEA 0000H 0001H 018DH 000AH 0024H
00:0036 7F E0                    1400   	mov	er0,	#-1
                                 1401   CBLOCKEND 11 3 398
                                 1402   CBLOCKEND 11 2 403
                                 1403   
                                 1404   ;;  }
                                 1405   CLINEA 0000H 0001H 0193H 0003H 0003H
00:0038                          1406   _$L178 :
00:0038 2E-F8                    1407   	pop	xr8
00:003A EA-A1                    1408   	mov	sp,	fp
00:003C 1E-FE                    1409   	pop	fp
00:003E 1F-FE                    1410   	rt
                                 1411   
                                 1412   ;;	   	}
                                 1413   CLINEA 0000H 0000H 018EH 0006H 0006H
00:0040                          1414   _$L179 :
                                 1415   
                                 1416   ;;	P30DIR = bit0; P31DIR = bit1;
                                 1417   CLINEA 0000H 0001H 018FH 0002H 001EH
00:0040 80-80                    1418   	mov	r0,	r8
00:0042 01 20                    1419   	and	r0,	#01h
00:0044 03 C9                    1420   	beq	_$M116
00:0046 80-A0 19-F2              1421   	sb	0f219h.0
00:004A 02 CE                    1422   	bal	_$M117
00:004C                          1423   _$M116 :
00:004C 82-A0 19-F2              1424   	rb	0f219h.0
00:0050                          1425   _$M117 :
00:0050 A0-80                    1426   	mov	r0,	r10
00:0052 01 20                    1427   	and	r0,	#01h
00:0054 03 C9                    1428   	beq	_$M118
00:0056 90-A0 19-F2              1429   	sb	0f219h.1
00:005A 02 CE                    1430   	bal	_$M119
00:005C                          1431   _$M118 :
RASU8(ML610409)Relocatable Assembler, Ver.1.70.0    assemble list. page:  30 
 Title : 
## Loc. Object                   Line   Source Statements

00:005C 92-A0 19-F2              1432   	rb	0f219h.1
00:0060                          1433   _$M119 :
                                 1434   
                                 1435   ;;	P32DIR = bit2; P33DIR = bit3;
                                 1436   CLINEA 0000H 0001H 0190H 0002H 001EH
00:0060 42 D0                    1437   	l	r0,	2[fp]
00:0062 01 20                    1438   	and	r0,	#01h
00:0064 03 C9                    1439   	beq	_$M120
00:0066 A0-A0 19-F2              1440   	sb	0f219h.2
00:006A 02 CE                    1441   	bal	_$M121
00:006C                          1442   _$M120 :
00:006C A2-A0 19-F2              1443   	rb	0f219h.2
00:0070                          1444   _$M121 :
00:0070 44 D0                    1445   	l	r0,	4[fp]
00:0072 01 20                    1446   	and	r0,	#01h
00:0074 03 C9                    1447   	beq	_$M122
00:0076 B0-A0 19-F2              1448   	sb	0f219h.3
00:007A 02 CE                    1449   	bal	_$M123
00:007C                          1450   _$M122 :
00:007C B2-A0 19-F2              1451   	rb	0f219h.3
00:0080                          1452   _$M123 :
                                 1453   
                                 1454   ;;	P34DIR = bit4; P35DIR = bit5;
                                 1455   CLINEA 0000H 0001H 0191H 0002H 001EH
00:0080 46 D0                    1456   	l	r0,	6[fp]
00:0082 01 20                    1457   	and	r0,	#01h
00:0084 03 C9                    1458   	beq	_$M124
00:0086 C0-A0 19-F2              1459   	sb	0f219h.4
00:008A 02 CE                    1460   	bal	_$M125
00:008C                          1461   _$M124 :
00:008C C2-A0 19-F2              1462   	rb	0f219h.4
00:0090                          1463   _$M125 :
00:0090 48 D0                    1464   	l	r0,	8[fp]
00:0092 01 20                    1465   	and	r0,	#01h
00:0094 03 C9                    1466   	beq	_$M126
00:0096 D0-A0 19-F2              1467   	sb	0f219h.5
00:009A 02 CE                    1468   	bal	_$M127
00:009C                          1469   _$M126 :
00:009C D2-A0 19-F2              1470   	rb	0f219h.5
00:00A0                          1471   _$M127 :
                                 1472   
                                 1473   ;;   return (PORT_DEPLOY_OK);	
                                 1474   CLINEA 0000H 0001H 0192H 0004H 001CH
00:00A0 00 E0                    1475   	mov	er0,	#0 
00:00A2 CA CE                    1476   	bal	_$L178
                                 1477   CBLOCKEND 11 1 403
                                 1478   CFUNCTIONEND 11
                                 1479   
                                 1480   
  --------------------------     1481   	rseg $$P3CON_0init$port
                                 1482   CFUNCTION 12
                                 1483   
00:0000                          1484   _P3CON_0init	:
                                 1485   CBLOCK 12 1 430
                                 1486   
                                 1487   ;; {
RASU8(ML610409)Relocatable Assembler, Ver.1.70.0    assemble list. page:  31 
 Title : 
## Loc. Object                   Line   Source Statements

                                 1488   CLINEA 0000H 0001H 01AEH 0002H 0002H
00:0000 5E-FE                    1489   	push	fp
00:0002 1A-AE                    1490   	mov	fp,	sp
00:0004 6E-F8                    1491   	push	xr8
00:0006 05-F8                    1492   	mov	er8,	er0
00:0008 25-FA                    1493   	mov	er10,	er2
                                 1494   CBLOCK 12 2 430
                                 1495   CARGUMENT 46H 0002H 0028H "bit0" 02H 00
                                        H 01H
                                 1496   CARGUMENT 46H 0002H 0029H "bit1" 02H 00
                                        H 01H
                                 1497   CARGUMENT 42H 0002H 0002H "bit2" 02H 00
                                        H 01H
                                 1498   CARGUMENT 42H 0002H 0004H "bit3" 02H 00
                                        H 01H
                                 1499   CARGUMENT 42H 0002H 0006H "bit4" 02H 00
                                        H 01H
                                 1500   CARGUMENT 42H 0002H 0008H "bit5" 02H 00
                                        H 01H
                                 1501   
                                 1502   ;;	   	bit4 > PORT_HIGH || bit
                                        5 > PORT_HIGH) {
                                 1503   CLINEA 0000H 0001H 01B1H 0006H 002CH
00:000A 01 70                    1504   	cmp	r0,	#01h
00:000C 00 51                    1505   	cmpc	r1,	#00h
00:000E 13 C2                    1506   	bgt	_$L200
00:0010 01 72                    1507   	cmp	r2,	#01h
00:0012 00 53                    1508   	cmpc	r3,	#00h
00:0014 10 C2                    1509   	bgt	_$L200
00:0016 42 B0                    1510   	l	er0,	2[fp]
00:0018 01 70                    1511   	cmp	r0,	#01h
00:001A 00 51                    1512   	cmpc	r1,	#00h
00:001C 0C C2                    1513   	bgt	_$L200
00:001E 44 B0                    1514   	l	er0,	4[fp]
00:0020 01 70                    1515   	cmp	r0,	#01h
00:0022 00 51                    1516   	cmpc	r1,	#00h
00:0024 08 C2                    1517   	bgt	_$L200
00:0026 46 B0                    1518   	l	er0,	6[fp]
00:0028 01 70                    1519   	cmp	r0,	#01h
00:002A 00 51                    1520   	cmpc	r1,	#00h
00:002C 04 C2                    1521   	bgt	_$L200
00:002E 48 B0                    1522   	l	er0,	8[fp]
00:0030 01 70                    1523   	cmp	r0,	#01h
00:0032 00 51                    1524   	cmpc	r1,	#00h
00:0034 05 C3                    1525   	ble	_$L199
00:0036                          1526   _$L200 :
                                 1527   CBLOCK 12 3 433
                                 1528   
                                 1529   ;;       	 return (PORT_DEPLOY_FA
                                        IL); 
                                 1530   CLINEA 0000H 0001H 01B2H 000AH 0024H
00:0036 7F E0                    1531   	mov	er0,	#-1
                                 1532   CBLOCKEND 12 3 435
                                 1533   CBLOCKEND 12 2 440
                                 1534   
                                 1535   ;;  }
RASU8(ML610409)Relocatable Assembler, Ver.1.70.0    assemble list. page:  32 
 Title : 
## Loc. Object                   Line   Source Statements

                                 1536   CLINEA 0000H 0001H 01B8H 0003H 0003H
00:0038                          1537   _$L198 :
00:0038 2E-F8                    1538   	pop	xr8
00:003A EA-A1                    1539   	mov	sp,	fp
00:003C 1E-FE                    1540   	pop	fp
00:003E 1F-FE                    1541   	rt
                                 1542   
                                 1543   ;;	   	} 
                                 1544   CLINEA 0000H 0000H 01B3H 0006H 0007H
00:0040                          1545   _$L199 :
                                 1546   
                                 1547   ;;	P30C0 = bit0; P31C0 = bit1;
                                 1548   CLINEA 0000H 0001H 01B4H 0002H 001CH
00:0040 80-80                    1549   	mov	r0,	r8
00:0042 01 20                    1550   	and	r0,	#01h
00:0044 03 C9                    1551   	beq	_$M129
00:0046 80-A0 1A-F2              1552   	sb	0f21ah.0
00:004A 02 CE                    1553   	bal	_$M130
00:004C                          1554   _$M129 :
00:004C 82-A0 1A-F2              1555   	rb	0f21ah.0
00:0050                          1556   _$M130 :
00:0050 A0-80                    1557   	mov	r0,	r10
00:0052 01 20                    1558   	and	r0,	#01h
00:0054 03 C9                    1559   	beq	_$M131
00:0056 90-A0 1A-F2              1560   	sb	0f21ah.1
00:005A 02 CE                    1561   	bal	_$M132
00:005C                          1562   _$M131 :
00:005C 92-A0 1A-F2              1563   	rb	0f21ah.1
00:0060                          1564   _$M132 :
                                 1565   
                                 1566   ;;	P32C0 = bit2; P33C0 = bit3;
                                 1567   CLINEA 0000H 0001H 01B5H 0002H 001CH
00:0060 42 D0                    1568   	l	r0,	2[fp]
00:0062 01 20                    1569   	and	r0,	#01h
00:0064 03 C9                    1570   	beq	_$M133
00:0066 A0-A0 1A-F2              1571   	sb	0f21ah.2
00:006A 02 CE                    1572   	bal	_$M134
00:006C                          1573   _$M133 :
00:006C A2-A0 1A-F2              1574   	rb	0f21ah.2
00:0070                          1575   _$M134 :
00:0070 44 D0                    1576   	l	r0,	4[fp]
00:0072 01 20                    1577   	and	r0,	#01h
00:0074 03 C9                    1578   	beq	_$M135
00:0076 B0-A0 1A-F2              1579   	sb	0f21ah.3
00:007A 02 CE                    1580   	bal	_$M136
00:007C                          1581   _$M135 :
00:007C B2-A0 1A-F2              1582   	rb	0f21ah.3
00:0080                          1583   _$M136 :
                                 1584   
                                 1585   ;;	P34C0 = bit4; P35C0 = bit5;
                                 1586   CLINEA 0000H 0001H 01B6H 0002H 001CH
00:0080 46 D0                    1587   	l	r0,	6[fp]
00:0082 01 20                    1588   	and	r0,	#01h
00:0084 03 C9                    1589   	beq	_$M137
00:0086 C0-A0 1A-F2              1590   	sb	0f21ah.4
00:008A 02 CE                    1591   	bal	_$M138
RASU8(ML610409)Relocatable Assembler, Ver.1.70.0    assemble list. page:  33 
 Title : 
## Loc. Object                   Line   Source Statements

00:008C                          1592   _$M137 :
00:008C C2-A0 1A-F2              1593   	rb	0f21ah.4
00:0090                          1594   _$M138 :
00:0090 48 D0                    1595   	l	r0,	8[fp]
00:0092 01 20                    1596   	and	r0,	#01h
00:0094 03 C9                    1597   	beq	_$M139
00:0096 D0-A0 1A-F2              1598   	sb	0f21ah.5
00:009A 02 CE                    1599   	bal	_$M140
00:009C                          1600   _$M139 :
00:009C D2-A0 1A-F2              1601   	rb	0f21ah.5
00:00A0                          1602   _$M140 :
                                 1603   
                                 1604   ;;   return (PORT_DEPLOY_OK);		
                                 1605   CLINEA 0000H 0001H 01B7H 0004H 001DH
00:00A0 00 E0                    1606   	mov	er0,	#0 
00:00A2 CA CE                    1607   	bal	_$L198
                                 1608   CBLOCKEND 12 1 440
                                 1609   CFUNCTIONEND 12
                                 1610   
                                 1611   
  --------------------------     1612   	rseg $$P3CON_1init$port
                                 1613   CFUNCTION 13
                                 1614   
00:0000                          1615   _P3CON_1init	:
                                 1616   CBLOCK 13 1 467
                                 1617   
                                 1618   ;; {
                                 1619   CLINEA 0000H 0001H 01D3H 0002H 0002H
00:0000 5E-FE                    1620   	push	fp
00:0002 1A-AE                    1621   	mov	fp,	sp
00:0004 6E-F8                    1622   	push	xr8
00:0006 05-F8                    1623   	mov	er8,	er0
00:0008 25-FA                    1624   	mov	er10,	er2
                                 1625   CBLOCK 13 2 467
                                 1626   CARGUMENT 46H 0002H 0028H "bit0" 02H 00
                                        H 01H
                                 1627   CARGUMENT 46H 0002H 0029H "bit1" 02H 00
                                        H 01H
                                 1628   CARGUMENT 42H 0002H 0002H "bit2" 02H 00
                                        H 01H
                                 1629   CARGUMENT 42H 0002H 0004H "bit3" 02H 00
                                        H 01H
                                 1630   CARGUMENT 42H 0002H 0006H "bit4" 02H 00
                                        H 01H
                                 1631   CARGUMENT 42H 0002H 0008H "bit5" 02H 00
                                        H 01H
                                 1632   
                                 1633   ;;	   	bit4 > PORT_HIGH || bit
                                        5 > PORT_HIGH) {
                                 1634   CLINEA 0000H 0001H 01D6H 0006H 002CH
00:000A 01 70                    1635   	cmp	r0,	#01h
00:000C 00 51                    1636   	cmpc	r1,	#00h
00:000E 13 C2                    1637   	bgt	_$L220
00:0010 01 72                    1638   	cmp	r2,	#01h
00:0012 00 53                    1639   	cmpc	r3,	#00h
00:0014 10 C2                    1640   	bgt	_$L220
RASU8(ML610409)Relocatable Assembler, Ver.1.70.0    assemble list. page:  34 
 Title : 
## Loc. Object                   Line   Source Statements

00:0016 42 B0                    1641   	l	er0,	2[fp]
00:0018 01 70                    1642   	cmp	r0,	#01h
00:001A 00 51                    1643   	cmpc	r1,	#00h
00:001C 0C C2                    1644   	bgt	_$L220
00:001E 44 B0                    1645   	l	er0,	4[fp]
00:0020 01 70                    1646   	cmp	r0,	#01h
00:0022 00 51                    1647   	cmpc	r1,	#00h
00:0024 08 C2                    1648   	bgt	_$L220
00:0026 46 B0                    1649   	l	er0,	6[fp]
00:0028 01 70                    1650   	cmp	r0,	#01h
00:002A 00 51                    1651   	cmpc	r1,	#00h
00:002C 04 C2                    1652   	bgt	_$L220
00:002E 48 B0                    1653   	l	er0,	8[fp]
00:0030 01 70                    1654   	cmp	r0,	#01h
00:0032 00 51                    1655   	cmpc	r1,	#00h
00:0034 05 C3                    1656   	ble	_$L219
00:0036                          1657   _$L220 :
                                 1658   CBLOCK 13 3 470
                                 1659   
                                 1660   ;;       	 return (PORT_DEPLOY_FA
                                        IL); 
                                 1661   CLINEA 0000H 0001H 01D7H 000AH 0024H
00:0036 7F E0                    1662   	mov	er0,	#-1
                                 1663   CBLOCKEND 13 3 472
                                 1664   CBLOCKEND 13 2 477
                                 1665   
                                 1666   ;;  }
                                 1667   CLINEA 0000H 0001H 01DDH 0003H 0003H
00:0038                          1668   _$L218 :
00:0038 2E-F8                    1669   	pop	xr8
00:003A EA-A1                    1670   	mov	sp,	fp
00:003C 1E-FE                    1671   	pop	fp
00:003E 1F-FE                    1672   	rt
                                 1673   
                                 1674   ;;	   	}
                                 1675   CLINEA 0000H 0000H 01D8H 0006H 0006H
00:0040                          1676   _$L219 :
                                 1677   
                                 1678   ;;	P30C1 = bit0; P31C1 = bit1;
                                 1679   CLINEA 0000H 0001H 01D9H 0002H 001CH
00:0040 80-80                    1680   	mov	r0,	r8
00:0042 01 20                    1681   	and	r0,	#01h
00:0044 03 C9                    1682   	beq	_$M142
00:0046 80-A0 1B-F2              1683   	sb	0f21bh.0
00:004A 02 CE                    1684   	bal	_$M143
00:004C                          1685   _$M142 :
00:004C 82-A0 1B-F2              1686   	rb	0f21bh.0
00:0050                          1687   _$M143 :
00:0050 A0-80                    1688   	mov	r0,	r10
00:0052 01 20                    1689   	and	r0,	#01h
00:0054 03 C9                    1690   	beq	_$M144
00:0056 90-A0 1B-F2              1691   	sb	0f21bh.1
00:005A 02 CE                    1692   	bal	_$M145
00:005C                          1693   _$M144 :
00:005C 92-A0 1B-F2              1694   	rb	0f21bh.1
00:0060                          1695   _$M145 :
RASU8(ML610409)Relocatable Assembler, Ver.1.70.0    assemble list. page:  35 
 Title : 
## Loc. Object                   Line   Source Statements

                                 1696   
                                 1697   ;;	P32C1 = bit2; P33C1 = bit3;
                                 1698   CLINEA 0000H 0001H 01DAH 0002H 001CH
00:0060 42 D0                    1699   	l	r0,	2[fp]
00:0062 01 20                    1700   	and	r0,	#01h
00:0064 03 C9                    1701   	beq	_$M146
00:0066 A0-A0 1B-F2              1702   	sb	0f21bh.2
00:006A 02 CE                    1703   	bal	_$M147
00:006C                          1704   _$M146 :
00:006C A2-A0 1B-F2              1705   	rb	0f21bh.2
00:0070                          1706   _$M147 :
00:0070 44 D0                    1707   	l	r0,	4[fp]
00:0072 01 20                    1708   	and	r0,	#01h
00:0074 03 C9                    1709   	beq	_$M148
00:0076 B0-A0 1B-F2              1710   	sb	0f21bh.3
00:007A 02 CE                    1711   	bal	_$M149
00:007C                          1712   _$M148 :
00:007C B2-A0 1B-F2              1713   	rb	0f21bh.3
00:0080                          1714   _$M149 :
                                 1715   
                                 1716   ;;	P34C1 = bit4; P35C1 = bit5;
                                 1717   CLINEA 0000H 0001H 01DBH 0002H 001CH
00:0080 46 D0                    1718   	l	r0,	6[fp]
00:0082 01 20                    1719   	and	r0,	#01h
00:0084 03 C9                    1720   	beq	_$M150
00:0086 C0-A0 1B-F2              1721   	sb	0f21bh.4
00:008A 02 CE                    1722   	bal	_$M151
00:008C                          1723   _$M150 :
00:008C C2-A0 1B-F2              1724   	rb	0f21bh.4
00:0090                          1725   _$M151 :
00:0090 48 D0                    1726   	l	r0,	8[fp]
00:0092 01 20                    1727   	and	r0,	#01h
00:0094 03 C9                    1728   	beq	_$M152
00:0096 D0-A0 1B-F2              1729   	sb	0f21bh.5
00:009A 02 CE                    1730   	bal	_$M153
00:009C                          1731   _$M152 :
00:009C D2-A0 1B-F2              1732   	rb	0f21bh.5
00:00A0                          1733   _$M153 :
                                 1734   
                                 1735   ;;   return (PORT_DEPLOY_OK);	   	
                                 1736   CLINEA 0000H 0001H 01DCH 0004H 0020H
00:00A0 00 E0                    1737   	mov	er0,	#0 
00:00A2 CA CE                    1738   	bal	_$L218
                                 1739   CBLOCKEND 13 1 477
                                 1740   CFUNCTIONEND 13
                                 1741   
                                 1742   
  --------------------------     1743   	rseg $$P3MOD_0init$port
                                 1744   CFUNCTION 14
                                 1745   
00:0000                          1746   _P3MOD_0init	:
                                 1747   CBLOCK 14 1 504
                                 1748   
                                 1749   ;; {
                                 1750   CLINEA 0000H 0001H 01F8H 0002H 0002H
00:0000 5E-FE                    1751   	push	fp
RASU8(ML610409)Relocatable Assembler, Ver.1.70.0    assemble list. page:  36 
 Title : 
## Loc. Object                   Line   Source Statements

00:0002 1A-AE                    1752   	mov	fp,	sp
00:0004 6E-F8                    1753   	push	xr8
00:0006 05-F8                    1754   	mov	er8,	er0
00:0008 25-FA                    1755   	mov	er10,	er2
                                 1756   CBLOCK 14 2 504
                                 1757   CARGUMENT 46H 0002H 0028H "bit0" 02H 00
                                        H 01H
                                 1758   CARGUMENT 46H 0002H 0029H "bit1" 02H 00
                                        H 01H
                                 1759   CARGUMENT 42H 0002H 0002H "bit2" 02H 00
                                        H 01H
                                 1760   CARGUMENT 42H 0002H 0004H "bit3" 02H 00
                                        H 01H
                                 1761   CARGUMENT 42H 0002H 0006H "bit4" 02H 00
                                        H 01H
                                 1762   CARGUMENT 42H 0002H 0008H "bit5" 02H 00
                                        H 01H
                                 1763   
                                 1764   ;;	   	bit4 > PORT_HIGH || bit
                                        5 > PORT_HIGH) {
                                 1765   CLINEA 0000H 0001H 01FBH 0006H 002CH
00:000A 01 70                    1766   	cmp	r0,	#01h
00:000C 00 51                    1767   	cmpc	r1,	#00h
00:000E 13 C2                    1768   	bgt	_$L240
00:0010 01 72                    1769   	cmp	r2,	#01h
00:0012 00 53                    1770   	cmpc	r3,	#00h
00:0014 10 C2                    1771   	bgt	_$L240
00:0016 42 B0                    1772   	l	er0,	2[fp]
00:0018 01 70                    1773   	cmp	r0,	#01h
00:001A 00 51                    1774   	cmpc	r1,	#00h
00:001C 0C C2                    1775   	bgt	_$L240
00:001E 44 B0                    1776   	l	er0,	4[fp]
00:0020 01 70                    1777   	cmp	r0,	#01h
00:0022 00 51                    1778   	cmpc	r1,	#00h
00:0024 08 C2                    1779   	bgt	_$L240
00:0026 46 B0                    1780   	l	er0,	6[fp]
00:0028 01 70                    1781   	cmp	r0,	#01h
00:002A 00 51                    1782   	cmpc	r1,	#00h
00:002C 04 C2                    1783   	bgt	_$L240
00:002E 48 B0                    1784   	l	er0,	8[fp]
00:0030 01 70                    1785   	cmp	r0,	#01h
00:0032 00 51                    1786   	cmpc	r1,	#00h
00:0034 05 C3                    1787   	ble	_$L239
00:0036                          1788   _$L240 :
                                 1789   CBLOCK 14 3 507
                                 1790   
                                 1791   ;;       	 return (PORT_DEPLOY_FA
                                        IL); 
                                 1792   CLINEA 0000H 0001H 01FCH 000AH 0024H
00:0036 7F E0                    1793   	mov	er0,	#-1
                                 1794   CBLOCKEND 14 3 509
                                 1795   CBLOCKEND 14 2 514
                                 1796   
                                 1797   ;;  }
                                 1798   CLINEA 0000H 0001H 0202H 0003H 0003H
00:0038                          1799   _$L238 :
RASU8(ML610409)Relocatable Assembler, Ver.1.70.0    assemble list. page:  37 
 Title : 
## Loc. Object                   Line   Source Statements

00:0038 2E-F8                    1800   	pop	xr8
00:003A EA-A1                    1801   	mov	sp,	fp
00:003C 1E-FE                    1802   	pop	fp
00:003E 1F-FE                    1803   	rt
                                 1804   
                                 1805   ;;	   	}
                                 1806   CLINEA 0000H 0000H 01FDH 0006H 0006H
00:0040                          1807   _$L239 :
                                 1808   
                                 1809   ;;	P30MD0 = bit0; P31MD0 = bit1;
                                 1810   CLINEA 0000H 0001H 01FEH 0002H 001EH
00:0040 80-80                    1811   	mov	r0,	r8
00:0042 01 20                    1812   	and	r0,	#01h
00:0044 03 C9                    1813   	beq	_$M155
00:0046 80-A0 1C-F2              1814   	sb	0f21ch.0
00:004A 02 CE                    1815   	bal	_$M156
00:004C                          1816   _$M155 :
00:004C 82-A0 1C-F2              1817   	rb	0f21ch.0
00:0050                          1818   _$M156 :
00:0050 A0-80                    1819   	mov	r0,	r10
00:0052 01 20                    1820   	and	r0,	#01h
00:0054 03 C9                    1821   	beq	_$M157
00:0056 90-A0 1C-F2              1822   	sb	0f21ch.1
00:005A 02 CE                    1823   	bal	_$M158
00:005C                          1824   _$M157 :
00:005C 92-A0 1C-F2              1825   	rb	0f21ch.1
00:0060                          1826   _$M158 :
                                 1827   
                                 1828   ;;	P32MD0 = bit2; P33MD0 = bit3;
                                 1829   CLINEA 0000H 0001H 01FFH 0002H 001EH
00:0060 42 D0                    1830   	l	r0,	2[fp]
00:0062 01 20                    1831   	and	r0,	#01h
00:0064 03 C9                    1832   	beq	_$M159
00:0066 A0-A0 1C-F2              1833   	sb	0f21ch.2
00:006A 02 CE                    1834   	bal	_$M160
00:006C                          1835   _$M159 :
00:006C A2-A0 1C-F2              1836   	rb	0f21ch.2
00:0070                          1837   _$M160 :
00:0070 44 D0                    1838   	l	r0,	4[fp]
00:0072 01 20                    1839   	and	r0,	#01h
00:0074 03 C9                    1840   	beq	_$M161
00:0076 B0-A0 1C-F2              1841   	sb	0f21ch.3
00:007A 02 CE                    1842   	bal	_$M162
00:007C                          1843   _$M161 :
00:007C B2-A0 1C-F2              1844   	rb	0f21ch.3
00:0080                          1845   _$M162 :
                                 1846   
                                 1847   ;;	P34MD0 = bit4; P35MD0 = bit5;
                                 1848   CLINEA 0000H 0001H 0200H 0002H 001EH
00:0080 46 D0                    1849   	l	r0,	6[fp]
00:0082 01 20                    1850   	and	r0,	#01h
00:0084 03 C9                    1851   	beq	_$M163
00:0086 C0-A0 1C-F2              1852   	sb	0f21ch.4
00:008A 02 CE                    1853   	bal	_$M164
00:008C                          1854   _$M163 :
00:008C C2-A0 1C-F2              1855   	rb	0f21ch.4
RASU8(ML610409)Relocatable Assembler, Ver.1.70.0    assemble list. page:  38 
 Title : 
## Loc. Object                   Line   Source Statements

00:0090                          1856   _$M164 :
00:0090 48 D0                    1857   	l	r0,	8[fp]
00:0092 01 20                    1858   	and	r0,	#01h
00:0094 03 C9                    1859   	beq	_$M165
00:0096 D0-A0 1C-F2              1860   	sb	0f21ch.5
00:009A 02 CE                    1861   	bal	_$M166
00:009C                          1862   _$M165 :
00:009C D2-A0 1C-F2              1863   	rb	0f21ch.5
00:00A0                          1864   _$M166 :
                                 1865   
                                 1866   ;;   return (PORT_DEPLOY_OK);	   	
                                 1867   CLINEA 0000H 0001H 0201H 0004H 0020H
00:00A0 00 E0                    1868   	mov	er0,	#0 
00:00A2 CA CE                    1869   	bal	_$L238
                                 1870   CBLOCKEND 14 1 514
                                 1871   CFUNCTIONEND 14
                                 1872   
                                 1873   
  --------------------------     1874   	rseg $$P4D_init$port
                                 1875   CFUNCTION 15
                                 1876   
00:0000                          1877   _P4D_init	:
                                 1878   CBLOCK 15 1 553
                                 1879   
                                 1880   ;; {
                                 1881   CLINEA 0000H 0001H 0229H 0002H 0002H
00:0000 5E-FE                    1882   	push	fp
00:0002 1A-AE                    1883   	mov	fp,	sp
00:0004 6E-F8                    1884   	push	xr8
00:0006 05-F8                    1885   	mov	er8,	er0
00:0008 25-FA                    1886   	mov	er10,	er2
                                 1887   CBLOCK 15 2 553
                                 1888   CARGUMENT 46H 0002H 0028H "bit0" 02H 00
                                        H 01H
                                 1889   CARGUMENT 46H 0002H 0029H "bit1" 02H 00
                                        H 01H
                                 1890   CARGUMENT 42H 0002H 0002H "bit2" 02H 00
                                        H 01H
                                 1891   CARGUMENT 42H 0002H 0004H "bit3" 02H 00
                                        H 01H
                                 1892   CARGUMENT 42H 0002H 0006H "bit4" 02H 00
                                        H 01H
                                 1893   CARGUMENT 42H 0002H 0008H "bit5" 02H 00
                                        H 01H
                                 1894   CARGUMENT 42H 0002H 000AH "bit6" 02H 00
                                        H 01H
                                 1895   CARGUMENT 42H 0002H 000CH "bit7" 02H 00
                                        H 01H
                                 1896   
                                 1897   ;;	     bit6 > PORT_HIGH || bit7 >
                                         PORT_HIGH) {
                                 1898   CLINEA 0000H 0001H 022DH 0007H 002DH
00:000A 01 70                    1899   	cmp	r0,	#01h
00:000C 00 51                    1900   	cmpc	r1,	#00h
00:000E 1B C2                    1901   	bgt	_$L260
00:0010 01 72                    1902   	cmp	r2,	#01h
RASU8(ML610409)Relocatable Assembler, Ver.1.70.0    assemble list. page:  39 
 Title : 
## Loc. Object                   Line   Source Statements

00:0012 00 53                    1903   	cmpc	r3,	#00h
00:0014 18 C2                    1904   	bgt	_$L260
00:0016 42 B0                    1905   	l	er0,	2[fp]
00:0018 01 70                    1906   	cmp	r0,	#01h
00:001A 00 51                    1907   	cmpc	r1,	#00h
00:001C 14 C2                    1908   	bgt	_$L260
00:001E 44 B0                    1909   	l	er0,	4[fp]
00:0020 01 70                    1910   	cmp	r0,	#01h
00:0022 00 51                    1911   	cmpc	r1,	#00h
00:0024 10 C2                    1912   	bgt	_$L260
00:0026 46 B0                    1913   	l	er0,	6[fp]
00:0028 01 70                    1914   	cmp	r0,	#01h
00:002A 00 51                    1915   	cmpc	r1,	#00h
00:002C 0C C2                    1916   	bgt	_$L260
00:002E 48 B0                    1917   	l	er0,	8[fp]
00:0030 01 70                    1918   	cmp	r0,	#01h
00:0032 00 51                    1919   	cmpc	r1,	#00h
00:0034 08 C2                    1920   	bgt	_$L260
00:0036 4A B0                    1921   	l	er0,	10[fp]
00:0038 01 70                    1922   	cmp	r0,	#01h
00:003A 00 51                    1923   	cmpc	r1,	#00h
00:003C 04 C2                    1924   	bgt	_$L260
00:003E 4C B0                    1925   	l	er0,	12[fp]
00:0040 01 70                    1926   	cmp	r0,	#01h
00:0042 00 51                    1927   	cmpc	r1,	#00h
00:0044 05 C3                    1928   	ble	_$L259
00:0046                          1929   _$L260 :
                                 1930   CBLOCK 15 3 557
                                 1931   
                                 1932   ;;       	 return (PORT_DEPLOY_FA
                                        IL);
                                 1933   CLINEA 0000H 0001H 022EH 000AH 0023H
00:0046 7F E0                    1934   	mov	er0,	#-1
                                 1935   CBLOCKEND 15 3 559
                                 1936   CBLOCKEND 15 2 565
                                 1937   
                                 1938   ;;  }
                                 1939   CLINEA 0000H 0001H 0235H 0003H 0003H
00:0048                          1940   _$L258 :
00:0048 2E-F8                    1941   	pop	xr8
00:004A EA-A1                    1942   	mov	sp,	fp
00:004C 1E-FE                    1943   	pop	fp
00:004E 1F-FE                    1944   	rt
                                 1945   
                                 1946   ;;        }
                                 1947   CLINEA 0000H 0000H 022FH 0009H 0009H
00:0050                          1948   _$L259 :
                                 1949   
                                 1950   ;;	P40D = bit0; P41D = bit1;
                                 1951   CLINEA 0000H 0001H 0230H 0002H 001AH
00:0050 80-80                    1952   	mov	r0,	r8
00:0052 01 20                    1953   	and	r0,	#01h
00:0054 03 C9                    1954   	beq	_$M168
00:0056 80-A0 20-F2              1955   	sb	0f220h.0
00:005A 02 CE                    1956   	bal	_$M169
00:005C                          1957   _$M168 :
RASU8(ML610409)Relocatable Assembler, Ver.1.70.0    assemble list. page:  40 
 Title : 
## Loc. Object                   Line   Source Statements

00:005C 82-A0 20-F2              1958   	rb	0f220h.0
00:0060                          1959   _$M169 :
00:0060 A0-80                    1960   	mov	r0,	r10
00:0062 01 20                    1961   	and	r0,	#01h
00:0064 03 C9                    1962   	beq	_$M170
00:0066 90-A0 20-F2              1963   	sb	0f220h.1
00:006A 02 CE                    1964   	bal	_$M171
00:006C                          1965   _$M170 :
00:006C 92-A0 20-F2              1966   	rb	0f220h.1
00:0070                          1967   _$M171 :
                                 1968   
                                 1969   ;;	P42D = bit2; P43D = bit3;
                                 1970   CLINEA 0000H 0001H 0231H 0002H 001AH
00:0070 42 D0                    1971   	l	r0,	2[fp]
00:0072 01 20                    1972   	and	r0,	#01h
00:0074 03 C9                    1973   	beq	_$M172
00:0076 A0-A0 20-F2              1974   	sb	0f220h.2
00:007A 02 CE                    1975   	bal	_$M173
00:007C                          1976   _$M172 :
00:007C A2-A0 20-F2              1977   	rb	0f220h.2
00:0080                          1978   _$M173 :
00:0080 44 D0                    1979   	l	r0,	4[fp]
00:0082 01 20                    1980   	and	r0,	#01h
00:0084 03 C9                    1981   	beq	_$M174
00:0086 B0-A0 20-F2              1982   	sb	0f220h.3
00:008A 02 CE                    1983   	bal	_$M175
00:008C                          1984   _$M174 :
00:008C B2-A0 20-F2              1985   	rb	0f220h.3
00:0090                          1986   _$M175 :
                                 1987   
                                 1988   ;;	P44D = bit4; P45D = bit5;
                                 1989   CLINEA 0000H 0001H 0232H 0002H 001AH
00:0090 46 D0                    1990   	l	r0,	6[fp]
00:0092 01 20                    1991   	and	r0,	#01h
00:0094 03 C9                    1992   	beq	_$M176
00:0096 C0-A0 20-F2              1993   	sb	0f220h.4
00:009A 02 CE                    1994   	bal	_$M177
00:009C                          1995   _$M176 :
00:009C C2-A0 20-F2              1996   	rb	0f220h.4
00:00A0                          1997   _$M177 :
00:00A0 48 D0                    1998   	l	r0,	8[fp]
00:00A2 01 20                    1999   	and	r0,	#01h
00:00A4 03 C9                    2000   	beq	_$M178
00:00A6 D0-A0 20-F2              2001   	sb	0f220h.5
00:00AA 02 CE                    2002   	bal	_$M179
00:00AC                          2003   _$M178 :
00:00AC D2-A0 20-F2              2004   	rb	0f220h.5
00:00B0                          2005   _$M179 :
                                 2006   
                                 2007   ;;	P46D = bit6; P47D = bit7;
                                 2008   CLINEA 0000H 0001H 0233H 0002H 001AH
00:00B0 4A D0                    2009   	l	r0,	10[fp]
00:00B2 01 20                    2010   	and	r0,	#01h
00:00B4 03 C9                    2011   	beq	_$M180
00:00B6 E0-A0 20-F2              2012   	sb	0f220h.6
00:00BA 02 CE                    2013   	bal	_$M181
RASU8(ML610409)Relocatable Assembler, Ver.1.70.0    assemble list. page:  41 
 Title : 
## Loc. Object                   Line   Source Statements

00:00BC                          2014   _$M180 :
00:00BC E2-A0 20-F2              2015   	rb	0f220h.6
00:00C0                          2016   _$M181 :
00:00C0 4C D0                    2017   	l	r0,	12[fp]
00:00C2 01 20                    2018   	and	r0,	#01h
00:00C4 03 C9                    2019   	beq	_$M182
00:00C6 F0-A0 20-F2              2020   	sb	0f220h.7
00:00CA 02 CE                    2021   	bal	_$M183
00:00CC                          2022   _$M182 :
00:00CC F2-A0 20-F2              2023   	rb	0f220h.7
00:00D0                          2024   _$M183 :
                                 2025   
                                 2026   ;;   return (PORT_DEPLOY_OK);   	
                                 2027   CLINEA 0000H 0001H 0234H 0004H 001FH
00:00D0 00 E0                    2028   	mov	er0,	#0 
00:00D2 00-F0'00-00'             2029   	b	_$L258
                                 2030   CBLOCKEND 15 1 565
                                 2031   CFUNCTIONEND 15
                                 2032   
                                 2033   
  --------------------------     2034   	rseg $$P4DIR_init$port
                                 2035   CFUNCTION 16
                                 2036   
00:0000                          2037   _P4DIR_init	:
                                 2038   CBLOCK 16 1 598
                                 2039   
                                 2040   ;; {
                                 2041   CLINEA 0000H 0001H 0256H 0002H 0002H
00:0000 5E-FE                    2042   	push	fp
00:0002 1A-AE                    2043   	mov	fp,	sp
00:0004 6E-F8                    2044   	push	xr8
00:0006 05-F8                    2045   	mov	er8,	er0
00:0008 25-FA                    2046   	mov	er10,	er2
                                 2047   CBLOCK 16 2 598
                                 2048   CARGUMENT 46H 0002H 0028H "bit0" 02H 00
                                        H 01H
                                 2049   CARGUMENT 46H 0002H 0029H "bit1" 02H 00
                                        H 01H
                                 2050   CARGUMENT 42H 0002H 0002H "bit2" 02H 00
                                        H 01H
                                 2051   CARGUMENT 42H 0002H 0004H "bit3" 02H 00
                                        H 01H
                                 2052   CARGUMENT 42H 0002H 0006H "bit4" 02H 00
                                        H 01H
                                 2053   CARGUMENT 42H 0002H 0008H "bit5" 02H 00
                                        H 01H
                                 2054   CARGUMENT 42H 0002H 000AH "bit6" 02H 00
                                        H 01H
                                 2055   CARGUMENT 42H 0002H 000CH "bit7" 02H 00
                                        H 01H
                                 2056   
                                 2057   ;;	     bit6 > PORT_HIGH || bit7 >
                                         PORT_HIGH) {
                                 2058   CLINEA 0000H 0001H 025AH 0007H 002DH
00:000A 01 70                    2059   	cmp	r0,	#01h
00:000C 00 51                    2060   	cmpc	r1,	#00h
RASU8(ML610409)Relocatable Assembler, Ver.1.70.0    assemble list. page:  42 
 Title : 
## Loc. Object                   Line   Source Statements

00:000E 1B C2                    2061   	bgt	_$L286
00:0010 01 72                    2062   	cmp	r2,	#01h
00:0012 00 53                    2063   	cmpc	r3,	#00h
00:0014 18 C2                    2064   	bgt	_$L286
00:0016 42 B0                    2065   	l	er0,	2[fp]
00:0018 01 70                    2066   	cmp	r0,	#01h
00:001A 00 51                    2067   	cmpc	r1,	#00h
00:001C 14 C2                    2068   	bgt	_$L286
00:001E 44 B0                    2069   	l	er0,	4[fp]
00:0020 01 70                    2070   	cmp	r0,	#01h
00:0022 00 51                    2071   	cmpc	r1,	#00h
00:0024 10 C2                    2072   	bgt	_$L286
00:0026 46 B0                    2073   	l	er0,	6[fp]
00:0028 01 70                    2074   	cmp	r0,	#01h
00:002A 00 51                    2075   	cmpc	r1,	#00h
00:002C 0C C2                    2076   	bgt	_$L286
00:002E 48 B0                    2077   	l	er0,	8[fp]
00:0030 01 70                    2078   	cmp	r0,	#01h
00:0032 00 51                    2079   	cmpc	r1,	#00h
00:0034 08 C2                    2080   	bgt	_$L286
00:0036 4A B0                    2081   	l	er0,	10[fp]
00:0038 01 70                    2082   	cmp	r0,	#01h
00:003A 00 51                    2083   	cmpc	r1,	#00h
00:003C 04 C2                    2084   	bgt	_$L286
00:003E 4C B0                    2085   	l	er0,	12[fp]
00:0040 01 70                    2086   	cmp	r0,	#01h
00:0042 00 51                    2087   	cmpc	r1,	#00h
00:0044 05 C3                    2088   	ble	_$L285
00:0046                          2089   _$L286 :
                                 2090   CBLOCK 16 3 602
                                 2091   
                                 2092   ;;       	 return (PORT_DEPLOY_FA
                                        IL);
                                 2093   CLINEA 0000H 0001H 025BH 000AH 0023H
00:0046 7F E0                    2094   	mov	er0,	#-1
                                 2095   CBLOCKEND 16 3 604
                                 2096   CBLOCKEND 16 2 610
                                 2097   
                                 2098   ;;  }
                                 2099   CLINEA 0000H 0001H 0262H 0003H 0003H
00:0048                          2100   _$L284 :
00:0048 2E-F8                    2101   	pop	xr8
00:004A EA-A1                    2102   	mov	sp,	fp
00:004C 1E-FE                    2103   	pop	fp
00:004E 1F-FE                    2104   	rt
                                 2105   
                                 2106   ;;        }
                                 2107   CLINEA 0000H 0000H 025CH 0009H 0009H
00:0050                          2108   _$L285 :
                                 2109   
                                 2110   ;;	P40DIR = bit0; P41DIR = bit1;
                                 2111   CLINEA 0000H 0001H 025DH 0002H 001EH
00:0050 80-80                    2112   	mov	r0,	r8
00:0052 01 20                    2113   	and	r0,	#01h
00:0054 03 C9                    2114   	beq	_$M185
00:0056 80-A0 21-F2              2115   	sb	0f221h.0
RASU8(ML610409)Relocatable Assembler, Ver.1.70.0    assemble list. page:  43 
 Title : 
## Loc. Object                   Line   Source Statements

00:005A 02 CE                    2116   	bal	_$M186
00:005C                          2117   _$M185 :
00:005C 82-A0 21-F2              2118   	rb	0f221h.0
00:0060                          2119   _$M186 :
00:0060 A0-80                    2120   	mov	r0,	r10
00:0062 01 20                    2121   	and	r0,	#01h
00:0064 03 C9                    2122   	beq	_$M187
00:0066 90-A0 21-F2              2123   	sb	0f221h.1
00:006A 02 CE                    2124   	bal	_$M188
00:006C                          2125   _$M187 :
00:006C 92-A0 21-F2              2126   	rb	0f221h.1
00:0070                          2127   _$M188 :
                                 2128   
                                 2129   ;;	P42DIR = bit2; P43DIR = bit3;
                                 2130   CLINEA 0000H 0001H 025EH 0002H 001EH
00:0070 42 D0                    2131   	l	r0,	2[fp]
00:0072 01 20                    2132   	and	r0,	#01h
00:0074 03 C9                    2133   	beq	_$M189
00:0076 A0-A0 21-F2              2134   	sb	0f221h.2
00:007A 02 CE                    2135   	bal	_$M190
00:007C                          2136   _$M189 :
00:007C A2-A0 21-F2              2137   	rb	0f221h.2
00:0080                          2138   _$M190 :
00:0080 44 D0                    2139   	l	r0,	4[fp]
00:0082 01 20                    2140   	and	r0,	#01h
00:0084 03 C9                    2141   	beq	_$M191
00:0086 B0-A0 21-F2              2142   	sb	0f221h.3
00:008A 02 CE                    2143   	bal	_$M192
00:008C                          2144   _$M191 :
00:008C B2-A0 21-F2              2145   	rb	0f221h.3
00:0090                          2146   _$M192 :
                                 2147   
                                 2148   ;;	P44DIR = bit4; P45DIR = bit5;
                                 2149   CLINEA 0000H 0001H 025FH 0002H 001EH
00:0090 46 D0                    2150   	l	r0,	6[fp]
00:0092 01 20                    2151   	and	r0,	#01h
00:0094 03 C9                    2152   	beq	_$M193
00:0096 C0-A0 21-F2              2153   	sb	0f221h.4
00:009A 02 CE                    2154   	bal	_$M194
00:009C                          2155   _$M193 :
00:009C C2-A0 21-F2              2156   	rb	0f221h.4
00:00A0                          2157   _$M194 :
00:00A0 48 D0                    2158   	l	r0,	8[fp]
00:00A2 01 20                    2159   	and	r0,	#01h
00:00A4 03 C9                    2160   	beq	_$M195
00:00A6 D0-A0 21-F2              2161   	sb	0f221h.5
00:00AA 02 CE                    2162   	bal	_$M196
00:00AC                          2163   _$M195 :
00:00AC D2-A0 21-F2              2164   	rb	0f221h.5
00:00B0                          2165   _$M196 :
                                 2166   
                                 2167   ;;	P46DIR = bit6; P47DIR = bit7;
                                 2168   CLINEA 0000H 0001H 0260H 0002H 001EH
00:00B0 4A D0                    2169   	l	r0,	10[fp]
00:00B2 01 20                    2170   	and	r0,	#01h
00:00B4 03 C9                    2171   	beq	_$M197
RASU8(ML610409)Relocatable Assembler, Ver.1.70.0    assemble list. page:  44 
 Title : 
## Loc. Object                   Line   Source Statements

00:00B6 E0-A0 21-F2              2172   	sb	0f221h.6
00:00BA 02 CE                    2173   	bal	_$M198
00:00BC                          2174   _$M197 :
00:00BC E2-A0 21-F2              2175   	rb	0f221h.6
00:00C0                          2176   _$M198 :
00:00C0 4C D0                    2177   	l	r0,	12[fp]
00:00C2 01 20                    2178   	and	r0,	#01h
00:00C4 03 C9                    2179   	beq	_$M199
00:00C6 F0-A0 21-F2              2180   	sb	0f221h.7
00:00CA 02 CE                    2181   	bal	_$M200
00:00CC                          2182   _$M199 :
00:00CC F2-A0 21-F2              2183   	rb	0f221h.7
00:00D0                          2184   _$M200 :
                                 2185   
                                 2186   ;;   return (PORT_DEPLOY_OK);   	
                                 2187   CLINEA 0000H 0001H 0261H 0004H 001FH
00:00D0 00 E0                    2188   	mov	er0,	#0 
00:00D2 00-F0'00-00'             2189   	b	_$L284
                                 2190   CBLOCKEND 16 1 610
                                 2191   CFUNCTIONEND 16
                                 2192   
                                 2193   
  --------------------------     2194   	rseg $$P4CON_0init$port
                                 2195   CFUNCTION 17
                                 2196   
00:0000                          2197   _P4CON_0init	:
                                 2198   CBLOCK 17 1 643
                                 2199   
                                 2200   ;; {
                                 2201   CLINEA 0000H 0001H 0283H 0002H 0002H
00:0000 5E-FE                    2202   	push	fp
00:0002 1A-AE                    2203   	mov	fp,	sp
00:0004 6E-F8                    2204   	push	xr8
00:0006 05-F8                    2205   	mov	er8,	er0
00:0008 25-FA                    2206   	mov	er10,	er2
                                 2207   CBLOCK 17 2 643
                                 2208   CARGUMENT 46H 0002H 0028H "bit0" 02H 00
                                        H 01H
                                 2209   CARGUMENT 46H 0002H 0029H "bit1" 02H 00
                                        H 01H
                                 2210   CARGUMENT 42H 0002H 0002H "bit2" 02H 00
                                        H 01H
                                 2211   CARGUMENT 42H 0002H 0004H "bit3" 02H 00
                                        H 01H
                                 2212   CARGUMENT 42H 0002H 0006H "bit4" 02H 00
                                        H 01H
                                 2213   CARGUMENT 42H 0002H 0008H "bit5" 02H 00
                                        H 01H
                                 2214   CARGUMENT 42H 0002H 000AH "bit6" 02H 00
                                        H 01H
                                 2215   CARGUMENT 42H 0002H 000CH "bit7" 02H 00
                                        H 01H
                                 2216   
                                 2217   ;;	     bit6 > PORT_HIGH || bit7 >
                                         PORT_HIGH) {
                                 2218   CLINEA 0000H 0001H 0287H 0007H 002DH
RASU8(ML610409)Relocatable Assembler, Ver.1.70.0    assemble list. page:  45 
 Title : 
## Loc. Object                   Line   Source Statements

00:000A 01 70                    2219   	cmp	r0,	#01h
00:000C 00 51                    2220   	cmpc	r1,	#00h
00:000E 1B C2                    2221   	bgt	_$L312
00:0010 01 72                    2222   	cmp	r2,	#01h
00:0012 00 53                    2223   	cmpc	r3,	#00h
00:0014 18 C2                    2224   	bgt	_$L312
00:0016 42 B0                    2225   	l	er0,	2[fp]
00:0018 01 70                    2226   	cmp	r0,	#01h
00:001A 00 51                    2227   	cmpc	r1,	#00h
00:001C 14 C2                    2228   	bgt	_$L312
00:001E 44 B0                    2229   	l	er0,	4[fp]
00:0020 01 70                    2230   	cmp	r0,	#01h
00:0022 00 51                    2231   	cmpc	r1,	#00h
00:0024 10 C2                    2232   	bgt	_$L312
00:0026 46 B0                    2233   	l	er0,	6[fp]
00:0028 01 70                    2234   	cmp	r0,	#01h
00:002A 00 51                    2235   	cmpc	r1,	#00h
00:002C 0C C2                    2236   	bgt	_$L312
00:002E 48 B0                    2237   	l	er0,	8[fp]
00:0030 01 70                    2238   	cmp	r0,	#01h
00:0032 00 51                    2239   	cmpc	r1,	#00h
00:0034 08 C2                    2240   	bgt	_$L312
00:0036 4A B0                    2241   	l	er0,	10[fp]
00:0038 01 70                    2242   	cmp	r0,	#01h
00:003A 00 51                    2243   	cmpc	r1,	#00h
00:003C 04 C2                    2244   	bgt	_$L312
00:003E 4C B0                    2245   	l	er0,	12[fp]
00:0040 01 70                    2246   	cmp	r0,	#01h
00:0042 00 51                    2247   	cmpc	r1,	#00h
00:0044 05 C3                    2248   	ble	_$L311
00:0046                          2249   _$L312 :
                                 2250   CBLOCK 17 3 647
                                 2251   
                                 2252   ;;       	 return (PORT_DEPLOY_FA
                                        IL);
                                 2253   CLINEA 0000H 0001H 0288H 000AH 0023H
00:0046 7F E0                    2254   	mov	er0,	#-1
                                 2255   CBLOCKEND 17 3 649
                                 2256   CBLOCKEND 17 2 655
                                 2257   
                                 2258   ;;  }
                                 2259   CLINEA 0000H 0001H 028FH 0003H 0003H
00:0048                          2260   _$L310 :
00:0048 2E-F8                    2261   	pop	xr8
00:004A EA-A1                    2262   	mov	sp,	fp
00:004C 1E-FE                    2263   	pop	fp
00:004E 1F-FE                    2264   	rt
                                 2265   
                                 2266   ;;        }
                                 2267   CLINEA 0000H 0000H 0289H 0009H 0009H
00:0050                          2268   _$L311 :
                                 2269   
                                 2270   ;;	P40C0 = bit0; P41C0 = bit1;
                                 2271   CLINEA 0000H 0001H 028AH 0002H 001CH
00:0050 80-80                    2272   	mov	r0,	r8
00:0052 01 20                    2273   	and	r0,	#01h
RASU8(ML610409)Relocatable Assembler, Ver.1.70.0    assemble list. page:  46 
 Title : 
## Loc. Object                   Line   Source Statements

00:0054 03 C9                    2274   	beq	_$M202
00:0056 80-A0 22-F2              2275   	sb	0f222h.0
00:005A 02 CE                    2276   	bal	_$M203
00:005C                          2277   _$M202 :
00:005C 82-A0 22-F2              2278   	rb	0f222h.0
00:0060                          2279   _$M203 :
00:0060 A0-80                    2280   	mov	r0,	r10
00:0062 01 20                    2281   	and	r0,	#01h
00:0064 03 C9                    2282   	beq	_$M204
00:0066 90-A0 22-F2              2283   	sb	0f222h.1
00:006A 02 CE                    2284   	bal	_$M205
00:006C                          2285   _$M204 :
00:006C 92-A0 22-F2              2286   	rb	0f222h.1
00:0070                          2287   _$M205 :
                                 2288   
                                 2289   ;;	P42C0 = bit2; P43C0 = bit3;
                                 2290   CLINEA 0000H 0001H 028BH 0002H 001CH
00:0070 42 D0                    2291   	l	r0,	2[fp]
00:0072 01 20                    2292   	and	r0,	#01h
00:0074 03 C9                    2293   	beq	_$M206
00:0076 A0-A0 22-F2              2294   	sb	0f222h.2
00:007A 02 CE                    2295   	bal	_$M207
00:007C                          2296   _$M206 :
00:007C A2-A0 22-F2              2297   	rb	0f222h.2
00:0080                          2298   _$M207 :
00:0080 44 D0                    2299   	l	r0,	4[fp]
00:0082 01 20                    2300   	and	r0,	#01h
00:0084 03 C9                    2301   	beq	_$M208
00:0086 B0-A0 22-F2              2302   	sb	0f222h.3
00:008A 02 CE                    2303   	bal	_$M209
00:008C                          2304   _$M208 :
00:008C B2-A0 22-F2              2305   	rb	0f222h.3
00:0090                          2306   _$M209 :
                                 2307   
                                 2308   ;;	P44C0 = bit4; P45C0 = bit5;
                                 2309   CLINEA 0000H 0001H 028CH 0002H 001CH
00:0090 46 D0                    2310   	l	r0,	6[fp]
00:0092 01 20                    2311   	and	r0,	#01h
00:0094 03 C9                    2312   	beq	_$M210
00:0096 C0-A0 22-F2              2313   	sb	0f222h.4
00:009A 02 CE                    2314   	bal	_$M211
00:009C                          2315   _$M210 :
00:009C C2-A0 22-F2              2316   	rb	0f222h.4
00:00A0                          2317   _$M211 :
00:00A0 48 D0                    2318   	l	r0,	8[fp]
00:00A2 01 20                    2319   	and	r0,	#01h
00:00A4 03 C9                    2320   	beq	_$M212
00:00A6 D0-A0 22-F2              2321   	sb	0f222h.5
00:00AA 02 CE                    2322   	bal	_$M213
00:00AC                          2323   _$M212 :
00:00AC D2-A0 22-F2              2324   	rb	0f222h.5
00:00B0                          2325   _$M213 :
                                 2326   
                                 2327   ;;	P46C0 = bit6; P47C0 = bit7;
                                 2328   CLINEA 0000H 0001H 028DH 0002H 001CH
00:00B0 4A D0                    2329   	l	r0,	10[fp]
RASU8(ML610409)Relocatable Assembler, Ver.1.70.0    assemble list. page:  47 
 Title : 
## Loc. Object                   Line   Source Statements

00:00B2 01 20                    2330   	and	r0,	#01h
00:00B4 03 C9                    2331   	beq	_$M214
00:00B6 E0-A0 22-F2              2332   	sb	0f222h.6
00:00BA 02 CE                    2333   	bal	_$M215
00:00BC                          2334   _$M214 :
00:00BC E2-A0 22-F2              2335   	rb	0f222h.6
00:00C0                          2336   _$M215 :
00:00C0 4C D0                    2337   	l	r0,	12[fp]
00:00C2 01 20                    2338   	and	r0,	#01h
00:00C4 03 C9                    2339   	beq	_$M216
00:00C6 F0-A0 22-F2              2340   	sb	0f222h.7
00:00CA 02 CE                    2341   	bal	_$M217
00:00CC                          2342   _$M216 :
00:00CC F2-A0 22-F2              2343   	rb	0f222h.7
00:00D0                          2344   _$M217 :
                                 2345   
                                 2346   ;;   return (PORT_DEPLOY_OK);   	
                                 2347   CLINEA 0000H 0001H 028EH 0004H 001FH
00:00D0 00 E0                    2348   	mov	er0,	#0 
00:00D2 00-F0'00-00'             2349   	b	_$L310
                                 2350   CBLOCKEND 17 1 655
                                 2351   CFUNCTIONEND 17
                                 2352   
                                 2353   
  --------------------------     2354   	rseg $$P4CON_1init$port
                                 2355   CFUNCTION 18
                                 2356   
00:0000                          2357   _P4CON_1init	:
                                 2358   CBLOCK 18 1 688
                                 2359   
                                 2360   ;; {
                                 2361   CLINEA 0000H 0001H 02B0H 0002H 0002H
00:0000 5E-FE                    2362   	push	fp
00:0002 1A-AE                    2363   	mov	fp,	sp
00:0004 6E-F8                    2364   	push	xr8
00:0006 05-F8                    2365   	mov	er8,	er0
00:0008 25-FA                    2366   	mov	er10,	er2
                                 2367   CBLOCK 18 2 688
                                 2368   CARGUMENT 46H 0002H 0028H "bit0" 02H 00
                                        H 01H
                                 2369   CARGUMENT 46H 0002H 0029H "bit1" 02H 00
                                        H 01H
                                 2370   CARGUMENT 42H 0002H 0002H "bit2" 02H 00
                                        H 01H
                                 2371   CARGUMENT 42H 0002H 0004H "bit3" 02H 00
                                        H 01H
                                 2372   CARGUMENT 42H 0002H 0006H "bit4" 02H 00
                                        H 01H
                                 2373   CARGUMENT 42H 0002H 0008H "bit5" 02H 00
                                        H 01H
                                 2374   CARGUMENT 42H 0002H 000AH "bit6" 02H 00
                                        H 01H
                                 2375   CARGUMENT 42H 0002H 000CH "bit7" 02H 00
                                        H 01H
                                 2376   
                                 2377   ;;	     bit6 > PORT_HIGH || bit7 >
RASU8(ML610409)Relocatable Assembler, Ver.1.70.0    assemble list. page:  48 
 Title : 
## Loc. Object                   Line   Source Statements

                                         PORT_HIGH) {
                                 2378   CLINEA 0000H 0001H 02B4H 0007H 002DH
00:000A 01 70                    2379   	cmp	r0,	#01h
00:000C 00 51                    2380   	cmpc	r1,	#00h
00:000E 1B C2                    2381   	bgt	_$L338
00:0010 01 72                    2382   	cmp	r2,	#01h
00:0012 00 53                    2383   	cmpc	r3,	#00h
00:0014 18 C2                    2384   	bgt	_$L338
00:0016 42 B0                    2385   	l	er0,	2[fp]
00:0018 01 70                    2386   	cmp	r0,	#01h
00:001A 00 51                    2387   	cmpc	r1,	#00h
00:001C 14 C2                    2388   	bgt	_$L338
00:001E 44 B0                    2389   	l	er0,	4[fp]
00:0020 01 70                    2390   	cmp	r0,	#01h
00:0022 00 51                    2391   	cmpc	r1,	#00h
00:0024 10 C2                    2392   	bgt	_$L338
00:0026 46 B0                    2393   	l	er0,	6[fp]
00:0028 01 70                    2394   	cmp	r0,	#01h
00:002A 00 51                    2395   	cmpc	r1,	#00h
00:002C 0C C2                    2396   	bgt	_$L338
00:002E 48 B0                    2397   	l	er0,	8[fp]
00:0030 01 70                    2398   	cmp	r0,	#01h
00:0032 00 51                    2399   	cmpc	r1,	#00h
00:0034 08 C2                    2400   	bgt	_$L338
00:0036 4A B0                    2401   	l	er0,	10[fp]
00:0038 01 70                    2402   	cmp	r0,	#01h
00:003A 00 51                    2403   	cmpc	r1,	#00h
00:003C 04 C2                    2404   	bgt	_$L338
00:003E 4C B0                    2405   	l	er0,	12[fp]
00:0040 01 70                    2406   	cmp	r0,	#01h
00:0042 00 51                    2407   	cmpc	r1,	#00h
00:0044 05 C3                    2408   	ble	_$L337
00:0046                          2409   _$L338 :
                                 2410   CBLOCK 18 3 692
                                 2411   
                                 2412   ;;       	 return (PORT_DEPLOY_FA
                                        IL);
                                 2413   CLINEA 0000H 0001H 02B5H 000AH 0023H
00:0046 7F E0                    2414   	mov	er0,	#-1
                                 2415   CBLOCKEND 18 3 694
                                 2416   CBLOCKEND 18 2 700
                                 2417   
                                 2418   ;;  }
                                 2419   CLINEA 0000H 0001H 02BCH 0003H 0003H
00:0048                          2420   _$L336 :
00:0048 2E-F8                    2421   	pop	xr8
00:004A EA-A1                    2422   	mov	sp,	fp
00:004C 1E-FE                    2423   	pop	fp
00:004E 1F-FE                    2424   	rt
                                 2425   
                                 2426   ;;        }
                                 2427   CLINEA 0000H 0000H 02B6H 0009H 0009H
00:0050                          2428   _$L337 :
                                 2429   
                                 2430   ;;	P40C1 = bit0; P41C1 = bit1;
                                 2431   CLINEA 0000H 0001H 02B7H 0002H 001CH
RASU8(ML610409)Relocatable Assembler, Ver.1.70.0    assemble list. page:  49 
 Title : 
## Loc. Object                   Line   Source Statements

00:0050 80-80                    2432   	mov	r0,	r8
00:0052 01 20                    2433   	and	r0,	#01h
00:0054 03 C9                    2434   	beq	_$M219
00:0056 80-A0 23-F2              2435   	sb	0f223h.0
00:005A 02 CE                    2436   	bal	_$M220
00:005C                          2437   _$M219 :
00:005C 82-A0 23-F2              2438   	rb	0f223h.0
00:0060                          2439   _$M220 :
00:0060 A0-80                    2440   	mov	r0,	r10
00:0062 01 20                    2441   	and	r0,	#01h
00:0064 03 C9                    2442   	beq	_$M221
00:0066 90-A0 23-F2              2443   	sb	0f223h.1
00:006A 02 CE                    2444   	bal	_$M222
00:006C                          2445   _$M221 :
00:006C 92-A0 23-F2              2446   	rb	0f223h.1
00:0070                          2447   _$M222 :
                                 2448   
                                 2449   ;;	P42C1 = bit2; P43C1 = bit3;
                                 2450   CLINEA 0000H 0001H 02B8H 0002H 001CH
00:0070 42 D0                    2451   	l	r0,	2[fp]
00:0072 01 20                    2452   	and	r0,	#01h
00:0074 03 C9                    2453   	beq	_$M223
00:0076 A0-A0 23-F2              2454   	sb	0f223h.2
00:007A 02 CE                    2455   	bal	_$M224
00:007C                          2456   _$M223 :
00:007C A2-A0 23-F2              2457   	rb	0f223h.2
00:0080                          2458   _$M224 :
00:0080 44 D0                    2459   	l	r0,	4[fp]
00:0082 01 20                    2460   	and	r0,	#01h
00:0084 03 C9                    2461   	beq	_$M225
00:0086 B0-A0 23-F2              2462   	sb	0f223h.3
00:008A 02 CE                    2463   	bal	_$M226
00:008C                          2464   _$M225 :
00:008C B2-A0 23-F2              2465   	rb	0f223h.3
00:0090                          2466   _$M226 :
                                 2467   
                                 2468   ;;	P44C1 = bit4; P45C1 = bit5;
                                 2469   CLINEA 0000H 0001H 02B9H 0002H 001CH
00:0090 46 D0                    2470   	l	r0,	6[fp]
00:0092 01 20                    2471   	and	r0,	#01h
00:0094 03 C9                    2472   	beq	_$M227
00:0096 C0-A0 23-F2              2473   	sb	0f223h.4
00:009A 02 CE                    2474   	bal	_$M228
00:009C                          2475   _$M227 :
00:009C C2-A0 23-F2              2476   	rb	0f223h.4
00:00A0                          2477   _$M228 :
00:00A0 48 D0                    2478   	l	r0,	8[fp]
00:00A2 01 20                    2479   	and	r0,	#01h
00:00A4 03 C9                    2480   	beq	_$M229
00:00A6 D0-A0 23-F2              2481   	sb	0f223h.5
00:00AA 02 CE                    2482   	bal	_$M230
00:00AC                          2483   _$M229 :
00:00AC D2-A0 23-F2              2484   	rb	0f223h.5
00:00B0                          2485   _$M230 :
                                 2486   
                                 2487   ;;	P46C1 = bit6; P47C1 = bit7;
RASU8(ML610409)Relocatable Assembler, Ver.1.70.0    assemble list. page:  50 
 Title : 
## Loc. Object                   Line   Source Statements

                                 2488   CLINEA 0000H 0001H 02BAH 0002H 001CH
00:00B0 4A D0                    2489   	l	r0,	10[fp]
00:00B2 01 20                    2490   	and	r0,	#01h
00:00B4 03 C9                    2491   	beq	_$M231
00:00B6 E0-A0 23-F2              2492   	sb	0f223h.6
00:00BA 02 CE                    2493   	bal	_$M232
00:00BC                          2494   _$M231 :
00:00BC E2-A0 23-F2              2495   	rb	0f223h.6
00:00C0                          2496   _$M232 :
00:00C0 4C D0                    2497   	l	r0,	12[fp]
00:00C2 01 20                    2498   	and	r0,	#01h
00:00C4 03 C9                    2499   	beq	_$M233
00:00C6 F0-A0 23-F2              2500   	sb	0f223h.7
00:00CA 02 CE                    2501   	bal	_$M234
00:00CC                          2502   _$M233 :
00:00CC F2-A0 23-F2              2503   	rb	0f223h.7
00:00D0                          2504   _$M234 :
                                 2505   
                                 2506   ;;   return (PORT_DEPLOY_OK);   	
                                 2507   CLINEA 0000H 0001H 02BBH 0004H 001FH
00:00D0 00 E0                    2508   	mov	er0,	#0 
00:00D2 00-F0'00-00'             2509   	b	_$L336
                                 2510   CBLOCKEND 18 1 700
                                 2511   CFUNCTIONEND 18
                                 2512   
                                 2513   
  --------------------------     2514   	rseg $$P4MOD_0init$port
                                 2515   CFUNCTION 19
                                 2516   
00:0000                          2517   _P4MOD_0init	:
                                 2518   CBLOCK 19 1 733
                                 2519   
                                 2520   ;; {
                                 2521   CLINEA 0000H 0001H 02DDH 0002H 0002H
00:0000 5E-FE                    2522   	push	fp
00:0002 1A-AE                    2523   	mov	fp,	sp
00:0004 6E-F8                    2524   	push	xr8
00:0006 05-F8                    2525   	mov	er8,	er0
00:0008 25-FA                    2526   	mov	er10,	er2
                                 2527   CBLOCK 19 2 733
                                 2528   CARGUMENT 46H 0002H 0028H "bit0" 02H 00
                                        H 01H
                                 2529   CARGUMENT 46H 0002H 0029H "bit1" 02H 00
                                        H 01H
                                 2530   CARGUMENT 42H 0002H 0002H "bit2" 02H 00
                                        H 01H
                                 2531   CARGUMENT 42H 0002H 0004H "bit3" 02H 00
                                        H 01H
                                 2532   CARGUMENT 42H 0002H 0006H "bit4" 02H 00
                                        H 01H
                                 2533   CARGUMENT 42H 0002H 0008H "bit5" 02H 00
                                        H 01H
                                 2534   CARGUMENT 42H 0002H 000AH "bit6" 02H 00
                                        H 01H
                                 2535   CARGUMENT 42H 0002H 000CH "bit7" 02H 00
                                        H 01H
RASU8(ML610409)Relocatable Assembler, Ver.1.70.0    assemble list. page:  51 
 Title : 
## Loc. Object                   Line   Source Statements

                                 2536   
                                 2537   ;;	     bit6 > PORT_HIGH || bit7 >
                                         PORT_HIGH) {
                                 2538   CLINEA 0000H 0001H 02E1H 0007H 002DH
00:000A 01 70                    2539   	cmp	r0,	#01h
00:000C 00 51                    2540   	cmpc	r1,	#00h
00:000E 1B C2                    2541   	bgt	_$L364
00:0010 01 72                    2542   	cmp	r2,	#01h
00:0012 00 53                    2543   	cmpc	r3,	#00h
00:0014 18 C2                    2544   	bgt	_$L364
00:0016 42 B0                    2545   	l	er0,	2[fp]
00:0018 01 70                    2546   	cmp	r0,	#01h
00:001A 00 51                    2547   	cmpc	r1,	#00h
00:001C 14 C2                    2548   	bgt	_$L364
00:001E 44 B0                    2549   	l	er0,	4[fp]
00:0020 01 70                    2550   	cmp	r0,	#01h
00:0022 00 51                    2551   	cmpc	r1,	#00h
00:0024 10 C2                    2552   	bgt	_$L364
00:0026 46 B0                    2553   	l	er0,	6[fp]
00:0028 01 70                    2554   	cmp	r0,	#01h
00:002A 00 51                    2555   	cmpc	r1,	#00h
00:002C 0C C2                    2556   	bgt	_$L364
00:002E 48 B0                    2557   	l	er0,	8[fp]
00:0030 01 70                    2558   	cmp	r0,	#01h
00:0032 00 51                    2559   	cmpc	r1,	#00h
00:0034 08 C2                    2560   	bgt	_$L364
00:0036 4A B0                    2561   	l	er0,	10[fp]
00:0038 01 70                    2562   	cmp	r0,	#01h
00:003A 00 51                    2563   	cmpc	r1,	#00h
00:003C 04 C2                    2564   	bgt	_$L364
00:003E 4C B0                    2565   	l	er0,	12[fp]
00:0040 01 70                    2566   	cmp	r0,	#01h
00:0042 00 51                    2567   	cmpc	r1,	#00h
00:0044 05 C3                    2568   	ble	_$L363
00:0046                          2569   _$L364 :
                                 2570   CBLOCK 19 3 737
                                 2571   
                                 2572   ;;       	 return (PORT_DEPLOY_FA
                                        IL);
                                 2573   CLINEA 0000H 0001H 02E2H 000AH 0023H
00:0046 7F E0                    2574   	mov	er0,	#-1
                                 2575   CBLOCKEND 19 3 739
                                 2576   CBLOCKEND 19 2 745
                                 2577   
                                 2578   ;;  }
                                 2579   CLINEA 0000H 0001H 02E9H 0003H 0003H
00:0048                          2580   _$L362 :
00:0048 2E-F8                    2581   	pop	xr8
00:004A EA-A1                    2582   	mov	sp,	fp
00:004C 1E-FE                    2583   	pop	fp
00:004E 1F-FE                    2584   	rt
                                 2585   
                                 2586   ;;        }
                                 2587   CLINEA 0000H 0000H 02E3H 0009H 0009H
00:0050                          2588   _$L363 :
                                 2589   
RASU8(ML610409)Relocatable Assembler, Ver.1.70.0    assemble list. page:  52 
 Title : 
## Loc. Object                   Line   Source Statements

                                 2590   ;;	P40MD0 = bit0; P41MD0 = bit1;
                                 2591   CLINEA 0000H 0001H 02E4H 0002H 001EH
00:0050 80-80                    2592   	mov	r0,	r8
00:0052 01 20                    2593   	and	r0,	#01h
00:0054 03 C9                    2594   	beq	_$M236
00:0056 80-A0 24-F2              2595   	sb	0f224h.0
00:005A 02 CE                    2596   	bal	_$M237
00:005C                          2597   _$M236 :
00:005C 82-A0 24-F2              2598   	rb	0f224h.0
00:0060                          2599   _$M237 :
00:0060 A0-80                    2600   	mov	r0,	r10
00:0062 01 20                    2601   	and	r0,	#01h
00:0064 03 C9                    2602   	beq	_$M238
00:0066 90-A0 24-F2              2603   	sb	0f224h.1
00:006A 02 CE                    2604   	bal	_$M239
00:006C                          2605   _$M238 :
00:006C 92-A0 24-F2              2606   	rb	0f224h.1
00:0070                          2607   _$M239 :
                                 2608   
                                 2609   ;;	P42MD0 = bit2; P43MD0 = bit3;
                                 2610   CLINEA 0000H 0001H 02E5H 0002H 001EH
00:0070 42 D0                    2611   	l	r0,	2[fp]
00:0072 01 20                    2612   	and	r0,	#01h
00:0074 03 C9                    2613   	beq	_$M240
00:0076 A0-A0 24-F2              2614   	sb	0f224h.2
00:007A 02 CE                    2615   	bal	_$M241
00:007C                          2616   _$M240 :
00:007C A2-A0 24-F2              2617   	rb	0f224h.2
00:0080                          2618   _$M241 :
00:0080 44 D0                    2619   	l	r0,	4[fp]
00:0082 01 20                    2620   	and	r0,	#01h
00:0084 03 C9                    2621   	beq	_$M242
00:0086 B0-A0 24-F2              2622   	sb	0f224h.3
00:008A 02 CE                    2623   	bal	_$M243
00:008C                          2624   _$M242 :
00:008C B2-A0 24-F2              2625   	rb	0f224h.3
00:0090                          2626   _$M243 :
                                 2627   
                                 2628   ;;	P44MD0 = bit4; P45MD0 = bit5;
                                 2629   CLINEA 0000H 0001H 02E6H 0002H 001EH
00:0090 46 D0                    2630   	l	r0,	6[fp]
00:0092 01 20                    2631   	and	r0,	#01h
00:0094 03 C9                    2632   	beq	_$M244
00:0096 C0-A0 24-F2              2633   	sb	0f224h.4
00:009A 02 CE                    2634   	bal	_$M245
00:009C                          2635   _$M244 :
00:009C C2-A0 24-F2              2636   	rb	0f224h.4
00:00A0                          2637   _$M245 :
00:00A0 48 D0                    2638   	l	r0,	8[fp]
00:00A2 01 20                    2639   	and	r0,	#01h
00:00A4 03 C9                    2640   	beq	_$M246
00:00A6 D0-A0 24-F2              2641   	sb	0f224h.5
00:00AA 02 CE                    2642   	bal	_$M247
00:00AC                          2643   _$M246 :
00:00AC D2-A0 24-F2              2644   	rb	0f224h.5
00:00B0                          2645   _$M247 :
RASU8(ML610409)Relocatable Assembler, Ver.1.70.0    assemble list. page:  53 
 Title : 
## Loc. Object                   Line   Source Statements

                                 2646   
                                 2647   ;;	P46MD0 = bit6; P47MD0 = bit7;
                                 2648   CLINEA 0000H 0001H 02E7H 0002H 001EH
00:00B0 4A D0                    2649   	l	r0,	10[fp]
00:00B2 01 20                    2650   	and	r0,	#01h
00:00B4 03 C9                    2651   	beq	_$M248
00:00B6 E0-A0 24-F2              2652   	sb	0f224h.6
00:00BA 02 CE                    2653   	bal	_$M249
00:00BC                          2654   _$M248 :
00:00BC E2-A0 24-F2              2655   	rb	0f224h.6
00:00C0                          2656   _$M249 :
00:00C0 4C D0                    2657   	l	r0,	12[fp]
00:00C2 01 20                    2658   	and	r0,	#01h
00:00C4 03 C9                    2659   	beq	_$M250
00:00C6 F0-A0 24-F2              2660   	sb	0f224h.7
00:00CA 02 CE                    2661   	bal	_$M251
00:00CC                          2662   _$M250 :
00:00CC F2-A0 24-F2              2663   	rb	0f224h.7
00:00D0                          2664   _$M251 :
                                 2665   
                                 2666   ;;   return (PORT_DEPLOY_OK);   	
                                 2667   CLINEA 0000H 0001H 02E8H 0004H 001FH
00:00D0 00 E0                    2668   	mov	er0,	#0 
00:00D2 00-F0'00-00'             2669   	b	_$L362
                                 2670   CBLOCKEND 19 1 745
                                 2671   CFUNCTIONEND 19
                                 2672   
                                 2673   
  --------------------------     2674   	rseg $$P4MOD_1init$port
                                 2675   CFUNCTION 20
                                 2676   
00:0000                          2677   _P4MOD_1init	:
                                 2678   CBLOCK 20 1 778
                                 2679   
                                 2680   ;; {
                                 2681   CLINEA 0000H 0001H 030AH 0002H 0002H
00:0000 5E-FE                    2682   	push	fp
00:0002 1A-AE                    2683   	mov	fp,	sp
00:0004 6E-F8                    2684   	push	xr8
00:0006 05-F8                    2685   	mov	er8,	er0
00:0008 25-FA                    2686   	mov	er10,	er2
                                 2687   CBLOCK 20 2 778
                                 2688   CARGUMENT 46H 0002H 0028H "bit0" 02H 00
                                        H 01H
                                 2689   CARGUMENT 46H 0002H 0029H "bit1" 02H 00
                                        H 01H
                                 2690   CARGUMENT 42H 0002H 0002H "bit2" 02H 00
                                        H 01H
                                 2691   CARGUMENT 42H 0002H 0004H "bit3" 02H 00
                                        H 01H
                                 2692   CARGUMENT 42H 0002H 0006H "bit4" 02H 00
                                        H 01H
                                 2693   CARGUMENT 42H 0002H 0008H "bit5" 02H 00
                                        H 01H
                                 2694   CARGUMENT 42H 0002H 000AH "bit6" 02H 00
                                        H 01H
RASU8(ML610409)Relocatable Assembler, Ver.1.70.0    assemble list. page:  54 
 Title : 
## Loc. Object                   Line   Source Statements

                                 2695   CARGUMENT 42H 0002H 000CH "bit7" 02H 00
                                        H 01H
                                 2696   
                                 2697   ;;	     bit6 > PORT_HIGH || bit7 >
                                         PORT_HIGH) {
                                 2698   CLINEA 0000H 0001H 030EH 0007H 002DH
00:000A 01 70                    2699   	cmp	r0,	#01h
00:000C 00 51                    2700   	cmpc	r1,	#00h
00:000E 1B C2                    2701   	bgt	_$L390
00:0010 01 72                    2702   	cmp	r2,	#01h
00:0012 00 53                    2703   	cmpc	r3,	#00h
00:0014 18 C2                    2704   	bgt	_$L390
00:0016 42 B0                    2705   	l	er0,	2[fp]
00:0018 01 70                    2706   	cmp	r0,	#01h
00:001A 00 51                    2707   	cmpc	r1,	#00h
00:001C 14 C2                    2708   	bgt	_$L390
00:001E 44 B0                    2709   	l	er0,	4[fp]
00:0020 01 70                    2710   	cmp	r0,	#01h
00:0022 00 51                    2711   	cmpc	r1,	#00h
00:0024 10 C2                    2712   	bgt	_$L390
00:0026 46 B0                    2713   	l	er0,	6[fp]
00:0028 01 70                    2714   	cmp	r0,	#01h
00:002A 00 51                    2715   	cmpc	r1,	#00h
00:002C 0C C2                    2716   	bgt	_$L390
00:002E 48 B0                    2717   	l	er0,	8[fp]
00:0030 01 70                    2718   	cmp	r0,	#01h
00:0032 00 51                    2719   	cmpc	r1,	#00h
00:0034 08 C2                    2720   	bgt	_$L390
00:0036 4A B0                    2721   	l	er0,	10[fp]
00:0038 01 70                    2722   	cmp	r0,	#01h
00:003A 00 51                    2723   	cmpc	r1,	#00h
00:003C 04 C2                    2724   	bgt	_$L390
00:003E 4C B0                    2725   	l	er0,	12[fp]
00:0040 01 70                    2726   	cmp	r0,	#01h
00:0042 00 51                    2727   	cmpc	r1,	#00h
00:0044 05 C3                    2728   	ble	_$L389
00:0046                          2729   _$L390 :
                                 2730   CBLOCK 20 3 782
                                 2731   
                                 2732   ;;       	 return (PORT_DEPLOY_FA
                                        IL);
                                 2733   CLINEA 0000H 0001H 030FH 000AH 0023H
00:0046 7F E0                    2734   	mov	er0,	#-1
                                 2735   CBLOCKEND 20 3 784
                                 2736   CBLOCKEND 20 2 790
                                 2737   
                                 2738   ;;  }
                                 2739   CLINEA 0000H 0001H 0316H 0003H 0003H
00:0048                          2740   _$L388 :
00:0048 2E-F8                    2741   	pop	xr8
00:004A EA-A1                    2742   	mov	sp,	fp
00:004C 1E-FE                    2743   	pop	fp
00:004E 1F-FE                    2744   	rt
                                 2745   
                                 2746   ;;        }
                                 2747   CLINEA 0000H 0000H 0310H 0009H 0009H
RASU8(ML610409)Relocatable Assembler, Ver.1.70.0    assemble list. page:  55 
 Title : 
## Loc. Object                   Line   Source Statements

00:0050                          2748   _$L389 :
                                 2749   
                                 2750   ;;	P40MD1 = bit0; P41MD1 = bit1;
                                 2751   CLINEA 0000H 0001H 0311H 0002H 001EH
00:0050 80-80                    2752   	mov	r0,	r8
00:0052 01 20                    2753   	and	r0,	#01h
00:0054 03 C9                    2754   	beq	_$M253
00:0056 80-A0 25-F2              2755   	sb	0f225h.0
00:005A 02 CE                    2756   	bal	_$M254
00:005C                          2757   _$M253 :
00:005C 82-A0 25-F2              2758   	rb	0f225h.0
00:0060                          2759   _$M254 :
00:0060 A0-80                    2760   	mov	r0,	r10
00:0062 01 20                    2761   	and	r0,	#01h
00:0064 03 C9                    2762   	beq	_$M255
00:0066 90-A0 25-F2              2763   	sb	0f225h.1
00:006A 02 CE                    2764   	bal	_$M256
00:006C                          2765   _$M255 :
00:006C 92-A0 25-F2              2766   	rb	0f225h.1
00:0070                          2767   _$M256 :
                                 2768   
                                 2769   ;;	P42MD1 = bit2; P43MD1 = bit3;
                                 2770   CLINEA 0000H 0001H 0312H 0002H 001EH
00:0070 42 D0                    2771   	l	r0,	2[fp]
00:0072 01 20                    2772   	and	r0,	#01h
00:0074 03 C9                    2773   	beq	_$M257
00:0076 A0-A0 25-F2              2774   	sb	0f225h.2
00:007A 02 CE                    2775   	bal	_$M258
00:007C                          2776   _$M257 :
00:007C A2-A0 25-F2              2777   	rb	0f225h.2
00:0080                          2778   _$M258 :
00:0080 44 D0                    2779   	l	r0,	4[fp]
00:0082 01 20                    2780   	and	r0,	#01h
00:0084 03 C9                    2781   	beq	_$M259
00:0086 B0-A0 25-F2              2782   	sb	0f225h.3
00:008A 02 CE                    2783   	bal	_$M260
00:008C                          2784   _$M259 :
00:008C B2-A0 25-F2              2785   	rb	0f225h.3
00:0090                          2786   _$M260 :
                                 2787   
                                 2788   ;;	P44MD1 = bit4; P45MD1 = bit5;
                                 2789   CLINEA 0000H 0001H 0313H 0002H 001EH
00:0090 46 D0                    2790   	l	r0,	6[fp]
00:0092 01 20                    2791   	and	r0,	#01h
00:0094 03 C9                    2792   	beq	_$M261
00:0096 C0-A0 25-F2              2793   	sb	0f225h.4
00:009A 02 CE                    2794   	bal	_$M262
00:009C                          2795   _$M261 :
00:009C C2-A0 25-F2              2796   	rb	0f225h.4
00:00A0                          2797   _$M262 :
00:00A0 48 D0                    2798   	l	r0,	8[fp]
00:00A2 01 20                    2799   	and	r0,	#01h
00:00A4 03 C9                    2800   	beq	_$M263
00:00A6 D0-A0 25-F2              2801   	sb	0f225h.5
00:00AA 02 CE                    2802   	bal	_$M264
00:00AC                          2803   _$M263 :
RASU8(ML610409)Relocatable Assembler, Ver.1.70.0    assemble list. page:  56 
 Title : 
## Loc. Object                   Line   Source Statements

00:00AC D2-A0 25-F2              2804   	rb	0f225h.5
00:00B0                          2805   _$M264 :
                                 2806   
                                 2807   ;;	P46MD1 = bit6; P47MD1 = bit7;
                                 2808   CLINEA 0000H 0001H 0314H 0002H 001EH
00:00B0 4A D0                    2809   	l	r0,	10[fp]
00:00B2 01 20                    2810   	and	r0,	#01h
00:00B4 03 C9                    2811   	beq	_$M265
00:00B6 E0-A0 25-F2              2812   	sb	0f225h.6
00:00BA 02 CE                    2813   	bal	_$M266
00:00BC                          2814   _$M265 :
00:00BC E2-A0 25-F2              2815   	rb	0f225h.6
00:00C0                          2816   _$M266 :
00:00C0 4C D0                    2817   	l	r0,	12[fp]
00:00C2 01 20                    2818   	and	r0,	#01h
00:00C4 03 C9                    2819   	beq	_$M267
00:00C6 F0-A0 25-F2              2820   	sb	0f225h.7
00:00CA 02 CE                    2821   	bal	_$M268
00:00CC                          2822   _$M267 :
00:00CC F2-A0 25-F2              2823   	rb	0f225h.7
00:00D0                          2824   _$M268 :
                                 2825   
                                 2826   ;;   return (PORT_DEPLOY_OK);   	
                                 2827   CLINEA 0000H 0001H 0315H 0004H 001FH
00:00D0 00 E0                    2828   	mov	er0,	#0 
00:00D2 00-F0'00-00'             2829   	b	_$L388
                                 2830   CBLOCKEND 20 1 790
                                 2831   CFUNCTIONEND 20
                                 2832   
                                 2833   
  --------------------------     2834   	rseg $$P5D_init$port
                                 2835   CFUNCTION 21
                                 2836   
00:0000                          2837   _P5D_init	:
                                 2838   CBLOCK 21 1 829
                                 2839   
                                 2840   ;; {
                                 2841   CLINEA 0000H 0001H 033DH 0002H 0002H
00:0000 5E-FE                    2842   	push	fp
00:0002 1A-AE                    2843   	mov	fp,	sp
00:0004 6E-F8                    2844   	push	xr8
00:0006 05-F8                    2845   	mov	er8,	er0
00:0008 25-FA                    2846   	mov	er10,	er2
                                 2847   CBLOCK 21 2 829
                                 2848   CARGUMENT 46H 0002H 0028H "bit0" 02H 00
                                        H 01H
                                 2849   CARGUMENT 46H 0002H 0029H "bit1" 02H 00
                                        H 01H
                                 2850   CARGUMENT 42H 0002H 0002H "bit2" 02H 00
                                        H 01H
                                 2851   CARGUMENT 42H 0002H 0004H "bit3" 02H 00
                                        H 01H
                                 2852   CARGUMENT 42H 0002H 0006H "bit4" 02H 00
                                        H 01H
                                 2853   CARGUMENT 42H 0002H 0008H "bit5" 02H 00
                                        H 01H
RASU8(ML610409)Relocatable Assembler, Ver.1.70.0    assemble list. page:  57 
 Title : 
## Loc. Object                   Line   Source Statements

                                 2854   CARGUMENT 42H 0002H 000AH "bit6" 02H 00
                                        H 01H
                                 2855   CARGUMENT 42H 0002H 000CH "bit7" 02H 00
                                        H 01H
                                 2856   
                                 2857   ;;	     bit6 > PORT_HIGH || bit7 >
                                         PORT_HIGH) {
                                 2858   CLINEA 0000H 0001H 0341H 0007H 002DH
00:000A 01 70                    2859   	cmp	r0,	#01h
00:000C 00 51                    2860   	cmpc	r1,	#00h
00:000E 1B C2                    2861   	bgt	_$L416
00:0010 01 72                    2862   	cmp	r2,	#01h
00:0012 00 53                    2863   	cmpc	r3,	#00h
00:0014 18 C2                    2864   	bgt	_$L416
00:0016 42 B0                    2865   	l	er0,	2[fp]
00:0018 01 70                    2866   	cmp	r0,	#01h
00:001A 00 51                    2867   	cmpc	r1,	#00h
00:001C 14 C2                    2868   	bgt	_$L416
00:001E 44 B0                    2869   	l	er0,	4[fp]
00:0020 01 70                    2870   	cmp	r0,	#01h
00:0022 00 51                    2871   	cmpc	r1,	#00h
00:0024 10 C2                    2872   	bgt	_$L416
00:0026 46 B0                    2873   	l	er0,	6[fp]
00:0028 01 70                    2874   	cmp	r0,	#01h
00:002A 00 51                    2875   	cmpc	r1,	#00h
00:002C 0C C2                    2876   	bgt	_$L416
00:002E 48 B0                    2877   	l	er0,	8[fp]
00:0030 01 70                    2878   	cmp	r0,	#01h
00:0032 00 51                    2879   	cmpc	r1,	#00h
00:0034 08 C2                    2880   	bgt	_$L416
00:0036 4A B0                    2881   	l	er0,	10[fp]
00:0038 01 70                    2882   	cmp	r0,	#01h
00:003A 00 51                    2883   	cmpc	r1,	#00h
00:003C 04 C2                    2884   	bgt	_$L416
00:003E 4C B0                    2885   	l	er0,	12[fp]
00:0040 01 70                    2886   	cmp	r0,	#01h
00:0042 00 51                    2887   	cmpc	r1,	#00h
00:0044 05 C3                    2888   	ble	_$L415
00:0046                          2889   _$L416 :
                                 2890   CBLOCK 21 3 833
                                 2891   
                                 2892   ;;       	 return (PORT_DEPLOY_FA
                                        IL);
                                 2893   CLINEA 0000H 0001H 0342H 000AH 0023H
00:0046 7F E0                    2894   	mov	er0,	#-1
                                 2895   CBLOCKEND 21 3 835
                                 2896   CBLOCKEND 21 2 841
                                 2897   
                                 2898   ;;  }
                                 2899   CLINEA 0000H 0001H 0349H 0003H 0003H
00:0048                          2900   _$L414 :
00:0048 2E-F8                    2901   	pop	xr8
00:004A EA-A1                    2902   	mov	sp,	fp
00:004C 1E-FE                    2903   	pop	fp
00:004E 1F-FE                    2904   	rt
                                 2905   
RASU8(ML610409)Relocatable Assembler, Ver.1.70.0    assemble list. page:  58 
 Title : 
## Loc. Object                   Line   Source Statements

                                 2906   ;;        }
                                 2907   CLINEA 0000H 0000H 0343H 0009H 0009H
00:0050                          2908   _$L415 :
                                 2909   
                                 2910   ;;	P50D = bit0; P51D = bit1;
                                 2911   CLINEA 0000H 0001H 0344H 0002H 001AH
00:0050 80-80                    2912   	mov	r0,	r8
00:0052 01 20                    2913   	and	r0,	#01h
00:0054 03 C9                    2914   	beq	_$M270
00:0056 80-A0 28-F2              2915   	sb	0f228h.0
00:005A 02 CE                    2916   	bal	_$M271
00:005C                          2917   _$M270 :
00:005C 82-A0 28-F2              2918   	rb	0f228h.0
00:0060                          2919   _$M271 :
00:0060 A0-80                    2920   	mov	r0,	r10
00:0062 01 20                    2921   	and	r0,	#01h
00:0064 03 C9                    2922   	beq	_$M272
00:0066 90-A0 28-F2              2923   	sb	0f228h.1
00:006A 02 CE                    2924   	bal	_$M273
00:006C                          2925   _$M272 :
00:006C 92-A0 28-F2              2926   	rb	0f228h.1
00:0070                          2927   _$M273 :
                                 2928   
                                 2929   ;;	P52D = bit2; P53D = bit3;
                                 2930   CLINEA 0000H 0001H 0345H 0002H 001AH
00:0070 42 D0                    2931   	l	r0,	2[fp]
00:0072 01 20                    2932   	and	r0,	#01h
00:0074 03 C9                    2933   	beq	_$M274
00:0076 A0-A0 28-F2              2934   	sb	0f228h.2
00:007A 02 CE                    2935   	bal	_$M275
00:007C                          2936   _$M274 :
00:007C A2-A0 28-F2              2937   	rb	0f228h.2
00:0080                          2938   _$M275 :
00:0080 44 D0                    2939   	l	r0,	4[fp]
00:0082 01 20                    2940   	and	r0,	#01h
00:0084 03 C9                    2941   	beq	_$M276
00:0086 B0-A0 28-F2              2942   	sb	0f228h.3
00:008A 02 CE                    2943   	bal	_$M277
00:008C                          2944   _$M276 :
00:008C B2-A0 28-F2              2945   	rb	0f228h.3
00:0090                          2946   _$M277 :
                                 2947   
                                 2948   ;;	P54D = bit4; P55D = bit5;
                                 2949   CLINEA 0000H 0001H 0346H 0002H 001AH
00:0090 46 D0                    2950   	l	r0,	6[fp]
00:0092 01 20                    2951   	and	r0,	#01h
00:0094 03 C9                    2952   	beq	_$M278
00:0096 C0-A0 28-F2              2953   	sb	0f228h.4
00:009A 02 CE                    2954   	bal	_$M279
00:009C                          2955   _$M278 :
00:009C C2-A0 28-F2              2956   	rb	0f228h.4
00:00A0                          2957   _$M279 :
00:00A0 48 D0                    2958   	l	r0,	8[fp]
00:00A2 01 20                    2959   	and	r0,	#01h
00:00A4 03 C9                    2960   	beq	_$M280
00:00A6 D0-A0 28-F2              2961   	sb	0f228h.5
RASU8(ML610409)Relocatable Assembler, Ver.1.70.0    assemble list. page:  59 
 Title : 
## Loc. Object                   Line   Source Statements

00:00AA 02 CE                    2962   	bal	_$M281
00:00AC                          2963   _$M280 :
00:00AC D2-A0 28-F2              2964   	rb	0f228h.5
00:00B0                          2965   _$M281 :
                                 2966   
                                 2967   ;;	P56D = bit6; P57D = bit7;
                                 2968   CLINEA 0000H 0001H 0347H 0002H 001AH
00:00B0 4A D0                    2969   	l	r0,	10[fp]
00:00B2 01 20                    2970   	and	r0,	#01h
00:00B4 03 C9                    2971   	beq	_$M282
00:00B6 E0-A0 28-F2              2972   	sb	0f228h.6
00:00BA 02 CE                    2973   	bal	_$M283
00:00BC                          2974   _$M282 :
00:00BC E2-A0 28-F2              2975   	rb	0f228h.6
00:00C0                          2976   _$M283 :
00:00C0 4C D0                    2977   	l	r0,	12[fp]
00:00C2 01 20                    2978   	and	r0,	#01h
00:00C4 03 C9                    2979   	beq	_$M284
00:00C6 F0-A0 28-F2              2980   	sb	0f228h.7
00:00CA 02 CE                    2981   	bal	_$M285
00:00CC                          2982   _$M284 :
00:00CC F2-A0 28-F2              2983   	rb	0f228h.7
00:00D0                          2984   _$M285 :
                                 2985   
                                 2986   ;;   return (PORT_DEPLOY_OK);   	
                                 2987   CLINEA 0000H 0001H 0348H 0004H 001FH
00:00D0 00 E0                    2988   	mov	er0,	#0 
00:00D2 00-F0'00-00'             2989   	b	_$L414
                                 2990   CBLOCKEND 21 1 841
                                 2991   CFUNCTIONEND 21
                                 2992   
                                 2993   
  --------------------------     2994   	rseg $$P5DIR_init$port
                                 2995   CFUNCTION 22
                                 2996   
00:0000                          2997   _P5DIR_init	:
                                 2998   CBLOCK 22 1 874
                                 2999   
                                 3000   ;; {
                                 3001   CLINEA 0000H 0001H 036AH 0002H 0002H
00:0000 5E-FE                    3002   	push	fp
00:0002 1A-AE                    3003   	mov	fp,	sp
00:0004 6E-F8                    3004   	push	xr8
00:0006 05-F8                    3005   	mov	er8,	er0
00:0008 25-FA                    3006   	mov	er10,	er2
                                 3007   CBLOCK 22 2 874
                                 3008   CARGUMENT 46H 0002H 0028H "bit0" 02H 00
                                        H 01H
                                 3009   CARGUMENT 46H 0002H 0029H "bit1" 02H 00
                                        H 01H
                                 3010   CARGUMENT 42H 0002H 0002H "bit2" 02H 00
                                        H 01H
                                 3011   CARGUMENT 42H 0002H 0004H "bit3" 02H 00
                                        H 01H
                                 3012   CARGUMENT 42H 0002H 0006H "bit4" 02H 00
                                        H 01H
RASU8(ML610409)Relocatable Assembler, Ver.1.70.0    assemble list. page:  60 
 Title : 
## Loc. Object                   Line   Source Statements

                                 3013   CARGUMENT 42H 0002H 0008H "bit5" 02H 00
                                        H 01H
                                 3014   CARGUMENT 42H 0002H 000AH "bit6" 02H 00
                                        H 01H
                                 3015   CARGUMENT 42H 0002H 000CH "bit7" 02H 00
                                        H 01H
                                 3016   
                                 3017   ;;	     bit6 > PORT_HIGH || bit7 >
                                         PORT_HIGH) {
                                 3018   CLINEA 0000H 0001H 036EH 0007H 002DH
00:000A 01 70                    3019   	cmp	r0,	#01h
00:000C 00 51                    3020   	cmpc	r1,	#00h
00:000E 1B C2                    3021   	bgt	_$L442
00:0010 01 72                    3022   	cmp	r2,	#01h
00:0012 00 53                    3023   	cmpc	r3,	#00h
00:0014 18 C2                    3024   	bgt	_$L442
00:0016 42 B0                    3025   	l	er0,	2[fp]
00:0018 01 70                    3026   	cmp	r0,	#01h
00:001A 00 51                    3027   	cmpc	r1,	#00h
00:001C 14 C2                    3028   	bgt	_$L442
00:001E 44 B0                    3029   	l	er0,	4[fp]
00:0020 01 70                    3030   	cmp	r0,	#01h
00:0022 00 51                    3031   	cmpc	r1,	#00h
00:0024 10 C2                    3032   	bgt	_$L442
00:0026 46 B0                    3033   	l	er0,	6[fp]
00:0028 01 70                    3034   	cmp	r0,	#01h
00:002A 00 51                    3035   	cmpc	r1,	#00h
00:002C 0C C2                    3036   	bgt	_$L442
00:002E 48 B0                    3037   	l	er0,	8[fp]
00:0030 01 70                    3038   	cmp	r0,	#01h
00:0032 00 51                    3039   	cmpc	r1,	#00h
00:0034 08 C2                    3040   	bgt	_$L442
00:0036 4A B0                    3041   	l	er0,	10[fp]
00:0038 01 70                    3042   	cmp	r0,	#01h
00:003A 00 51                    3043   	cmpc	r1,	#00h
00:003C 04 C2                    3044   	bgt	_$L442
00:003E 4C B0                    3045   	l	er0,	12[fp]
00:0040 01 70                    3046   	cmp	r0,	#01h
00:0042 00 51                    3047   	cmpc	r1,	#00h
00:0044 05 C3                    3048   	ble	_$L441
00:0046                          3049   _$L442 :
                                 3050   CBLOCK 22 3 878
                                 3051   
                                 3052   ;;       	 return (PORT_DEPLOY_FA
                                        IL);
                                 3053   CLINEA 0000H 0001H 036FH 000AH 0023H
00:0046 7F E0                    3054   	mov	er0,	#-1
                                 3055   CBLOCKEND 22 3 880
                                 3056   CBLOCKEND 22 2 886
                                 3057   
                                 3058   ;;  }
                                 3059   CLINEA 0000H 0001H 0376H 0003H 0003H
00:0048                          3060   _$L440 :
00:0048 2E-F8                    3061   	pop	xr8
00:004A EA-A1                    3062   	mov	sp,	fp
00:004C 1E-FE                    3063   	pop	fp
RASU8(ML610409)Relocatable Assembler, Ver.1.70.0    assemble list. page:  61 
 Title : 
## Loc. Object                   Line   Source Statements

00:004E 1F-FE                    3064   	rt
                                 3065   
                                 3066   ;;        }
                                 3067   CLINEA 0000H 0000H 0370H 0009H 0009H
00:0050                          3068   _$L441 :
                                 3069   
                                 3070   ;;	P50DIR = bit0; P51DIR = bit1;
                                 3071   CLINEA 0000H 0001H 0371H 0002H 001EH
00:0050 80-80                    3072   	mov	r0,	r8
00:0052 01 20                    3073   	and	r0,	#01h
00:0054 03 C9                    3074   	beq	_$M287
00:0056 80-A0 29-F2              3075   	sb	0f229h.0
00:005A 02 CE                    3076   	bal	_$M288
00:005C                          3077   _$M287 :
00:005C 82-A0 29-F2              3078   	rb	0f229h.0
00:0060                          3079   _$M288 :
00:0060 A0-80                    3080   	mov	r0,	r10
00:0062 01 20                    3081   	and	r0,	#01h
00:0064 03 C9                    3082   	beq	_$M289
00:0066 90-A0 29-F2              3083   	sb	0f229h.1
00:006A 02 CE                    3084   	bal	_$M290
00:006C                          3085   _$M289 :
00:006C 92-A0 29-F2              3086   	rb	0f229h.1
00:0070                          3087   _$M290 :
                                 3088   
                                 3089   ;;	P52DIR = bit2; P53DIR = bit3;
                                 3090   CLINEA 0000H 0001H 0372H 0002H 001EH
00:0070 42 D0                    3091   	l	r0,	2[fp]
00:0072 01 20                    3092   	and	r0,	#01h
00:0074 03 C9                    3093   	beq	_$M291
00:0076 A0-A0 29-F2              3094   	sb	0f229h.2
00:007A 02 CE                    3095   	bal	_$M292
00:007C                          3096   _$M291 :
00:007C A2-A0 29-F2              3097   	rb	0f229h.2
00:0080                          3098   _$M292 :
00:0080 44 D0                    3099   	l	r0,	4[fp]
00:0082 01 20                    3100   	and	r0,	#01h
00:0084 03 C9                    3101   	beq	_$M293
00:0086 B0-A0 29-F2              3102   	sb	0f229h.3
00:008A 02 CE                    3103   	bal	_$M294
00:008C                          3104   _$M293 :
00:008C B2-A0 29-F2              3105   	rb	0f229h.3
00:0090                          3106   _$M294 :
                                 3107   
                                 3108   ;;	P54DIR = bit4; P55DIR = bit5;
                                 3109   CLINEA 0000H 0001H 0373H 0002H 001EH
00:0090 46 D0                    3110   	l	r0,	6[fp]
00:0092 01 20                    3111   	and	r0,	#01h
00:0094 03 C9                    3112   	beq	_$M295
00:0096 C0-A0 29-F2              3113   	sb	0f229h.4
00:009A 02 CE                    3114   	bal	_$M296
00:009C                          3115   _$M295 :
00:009C C2-A0 29-F2              3116   	rb	0f229h.4
00:00A0                          3117   _$M296 :
00:00A0 48 D0                    3118   	l	r0,	8[fp]
00:00A2 01 20                    3119   	and	r0,	#01h
RASU8(ML610409)Relocatable Assembler, Ver.1.70.0    assemble list. page:  62 
 Title : 
## Loc. Object                   Line   Source Statements

00:00A4 03 C9                    3120   	beq	_$M297
00:00A6 D0-A0 29-F2              3121   	sb	0f229h.5
00:00AA 02 CE                    3122   	bal	_$M298
00:00AC                          3123   _$M297 :
00:00AC D2-A0 29-F2              3124   	rb	0f229h.5
00:00B0                          3125   _$M298 :
                                 3126   
                                 3127   ;;	P56DIR = bit6; P57DIR = bit7;
                                 3128   CLINEA 0000H 0001H 0374H 0002H 001EH
00:00B0 4A D0                    3129   	l	r0,	10[fp]
00:00B2 01 20                    3130   	and	r0,	#01h
00:00B4 03 C9                    3131   	beq	_$M299
00:00B6 E0-A0 29-F2              3132   	sb	0f229h.6
00:00BA 02 CE                    3133   	bal	_$M300
00:00BC                          3134   _$M299 :
00:00BC E2-A0 29-F2              3135   	rb	0f229h.6
00:00C0                          3136   _$M300 :
00:00C0 4C D0                    3137   	l	r0,	12[fp]
00:00C2 01 20                    3138   	and	r0,	#01h
00:00C4 03 C9                    3139   	beq	_$M301
00:00C6 F0-A0 29-F2              3140   	sb	0f229h.7
00:00CA 02 CE                    3141   	bal	_$M302
00:00CC                          3142   _$M301 :
00:00CC F2-A0 29-F2              3143   	rb	0f229h.7
00:00D0                          3144   _$M302 :
                                 3145   
                                 3146   ;;   return (PORT_DEPLOY_OK);   	
                                 3147   CLINEA 0000H 0001H 0375H 0004H 001FH
00:00D0 00 E0                    3148   	mov	er0,	#0 
00:00D2 00-F0'00-00'             3149   	b	_$L440
                                 3150   CBLOCKEND 22 1 886
                                 3151   CFUNCTIONEND 22
                                 3152   
                                 3153   
  --------------------------     3154   	rseg $$P5CON_0init$port
                                 3155   CFUNCTION 23
                                 3156   
00:0000                          3157   _P5CON_0init	:
                                 3158   CBLOCK 23 1 920
                                 3159   
                                 3160   ;; {
                                 3161   CLINEA 0000H 0001H 0398H 0002H 0002H
00:0000 5E-FE                    3162   	push	fp
00:0002 1A-AE                    3163   	mov	fp,	sp
00:0004 6E-F8                    3164   	push	xr8
00:0006 05-F8                    3165   	mov	er8,	er0
00:0008 25-FA                    3166   	mov	er10,	er2
                                 3167   CBLOCK 23 2 920
                                 3168   CARGUMENT 46H 0002H 0028H "bit0" 02H 00
                                        H 01H
                                 3169   CARGUMENT 46H 0002H 0029H "bit1" 02H 00
                                        H 01H
                                 3170   CARGUMENT 42H 0002H 0002H "bit2" 02H 00
                                        H 01H
                                 3171   CARGUMENT 42H 0002H 0004H "bit3" 02H 00
                                        H 01H
RASU8(ML610409)Relocatable Assembler, Ver.1.70.0    assemble list. page:  63 
 Title : 
## Loc. Object                   Line   Source Statements

                                 3172   CARGUMENT 42H 0002H 0006H "bit4" 02H 00
                                        H 01H
                                 3173   CARGUMENT 42H 0002H 0008H "bit5" 02H 00
                                        H 01H
                                 3174   CARGUMENT 42H 0002H 000AH "bit6" 02H 00
                                        H 01H
                                 3175   CARGUMENT 42H 0002H 000CH "bit7" 02H 00
                                        H 01H
                                 3176   
                                 3177   ;;	     bit6 > PORT_HIGH || bit7 >
                                         PORT_HIGH) {
                                 3178   CLINEA 0000H 0001H 039CH 0007H 002DH
00:000A 01 70                    3179   	cmp	r0,	#01h
00:000C 00 51                    3180   	cmpc	r1,	#00h
00:000E 1B C2                    3181   	bgt	_$L468
00:0010 01 72                    3182   	cmp	r2,	#01h
00:0012 00 53                    3183   	cmpc	r3,	#00h
00:0014 18 C2                    3184   	bgt	_$L468
00:0016 42 B0                    3185   	l	er0,	2[fp]
00:0018 01 70                    3186   	cmp	r0,	#01h
00:001A 00 51                    3187   	cmpc	r1,	#00h
00:001C 14 C2                    3188   	bgt	_$L468
00:001E 44 B0                    3189   	l	er0,	4[fp]
00:0020 01 70                    3190   	cmp	r0,	#01h
00:0022 00 51                    3191   	cmpc	r1,	#00h
00:0024 10 C2                    3192   	bgt	_$L468
00:0026 46 B0                    3193   	l	er0,	6[fp]
00:0028 01 70                    3194   	cmp	r0,	#01h
00:002A 00 51                    3195   	cmpc	r1,	#00h
00:002C 0C C2                    3196   	bgt	_$L468
00:002E 48 B0                    3197   	l	er0,	8[fp]
00:0030 01 70                    3198   	cmp	r0,	#01h
00:0032 00 51                    3199   	cmpc	r1,	#00h
00:0034 08 C2                    3200   	bgt	_$L468
00:0036 4A B0                    3201   	l	er0,	10[fp]
00:0038 01 70                    3202   	cmp	r0,	#01h
00:003A 00 51                    3203   	cmpc	r1,	#00h
00:003C 04 C2                    3204   	bgt	_$L468
00:003E 4C B0                    3205   	l	er0,	12[fp]
00:0040 01 70                    3206   	cmp	r0,	#01h
00:0042 00 51                    3207   	cmpc	r1,	#00h
00:0044 05 C3                    3208   	ble	_$L467
00:0046                          3209   _$L468 :
                                 3210   CBLOCK 23 3 924
                                 3211   
                                 3212   ;;       	 return (PORT_DEPLOY_FA
                                        IL);
                                 3213   CLINEA 0000H 0001H 039DH 000AH 0023H
00:0046 7F E0                    3214   	mov	er0,	#-1
                                 3215   CBLOCKEND 23 3 926
                                 3216   CBLOCKEND 23 2 932
                                 3217   
                                 3218   ;;  }
                                 3219   CLINEA 0000H 0001H 03A4H 0003H 0003H
00:0048                          3220   _$L466 :
00:0048 2E-F8                    3221   	pop	xr8
RASU8(ML610409)Relocatable Assembler, Ver.1.70.0    assemble list. page:  64 
 Title : 
## Loc. Object                   Line   Source Statements

00:004A EA-A1                    3222   	mov	sp,	fp
00:004C 1E-FE                    3223   	pop	fp
00:004E 1F-FE                    3224   	rt
                                 3225   
                                 3226   ;;        }
                                 3227   CLINEA 0000H 0000H 039EH 0009H 0009H
00:0050                          3228   _$L467 :
                                 3229   
                                 3230   ;;	P50C0 = bit0; P51C0 = bit1;
                                 3231   CLINEA 0000H 0001H 039FH 0002H 001CH
00:0050 80-80                    3232   	mov	r0,	r8
00:0052 01 20                    3233   	and	r0,	#01h
00:0054 03 C9                    3234   	beq	_$M304
00:0056 80-A0 2A-F2              3235   	sb	0f22ah.0
00:005A 02 CE                    3236   	bal	_$M305
00:005C                          3237   _$M304 :
00:005C 82-A0 2A-F2              3238   	rb	0f22ah.0
00:0060                          3239   _$M305 :
00:0060 A0-80                    3240   	mov	r0,	r10
00:0062 01 20                    3241   	and	r0,	#01h
00:0064 03 C9                    3242   	beq	_$M306
00:0066 90-A0 2A-F2              3243   	sb	0f22ah.1
00:006A 02 CE                    3244   	bal	_$M307
00:006C                          3245   _$M306 :
00:006C 92-A0 2A-F2              3246   	rb	0f22ah.1
00:0070                          3247   _$M307 :
                                 3248   
                                 3249   ;;	P52C0 = bit2; P53C0 = bit3;
                                 3250   CLINEA 0000H 0001H 03A0H 0002H 001CH
00:0070 42 D0                    3251   	l	r0,	2[fp]
00:0072 01 20                    3252   	and	r0,	#01h
00:0074 03 C9                    3253   	beq	_$M308
00:0076 A0-A0 2A-F2              3254   	sb	0f22ah.2
00:007A 02 CE                    3255   	bal	_$M309
00:007C                          3256   _$M308 :
00:007C A2-A0 2A-F2              3257   	rb	0f22ah.2
00:0080                          3258   _$M309 :
00:0080 44 D0                    3259   	l	r0,	4[fp]
00:0082 01 20                    3260   	and	r0,	#01h
00:0084 03 C9                    3261   	beq	_$M310
00:0086 B0-A0 2A-F2              3262   	sb	0f22ah.3
00:008A 02 CE                    3263   	bal	_$M311
00:008C                          3264   _$M310 :
00:008C B2-A0 2A-F2              3265   	rb	0f22ah.3
00:0090                          3266   _$M311 :
                                 3267   
                                 3268   ;;	P54C0 = bit4; P55C0 = bit5;
                                 3269   CLINEA 0000H 0001H 03A1H 0002H 001CH
00:0090 46 D0                    3270   	l	r0,	6[fp]
00:0092 01 20                    3271   	and	r0,	#01h
00:0094 03 C9                    3272   	beq	_$M312
00:0096 C0-A0 2A-F2              3273   	sb	0f22ah.4
00:009A 02 CE                    3274   	bal	_$M313
00:009C                          3275   _$M312 :
00:009C C2-A0 2A-F2              3276   	rb	0f22ah.4
00:00A0                          3277   _$M313 :
RASU8(ML610409)Relocatable Assembler, Ver.1.70.0    assemble list. page:  65 
 Title : 
## Loc. Object                   Line   Source Statements

00:00A0 48 D0                    3278   	l	r0,	8[fp]
00:00A2 01 20                    3279   	and	r0,	#01h
00:00A4 03 C9                    3280   	beq	_$M314
00:00A6 D0-A0 2A-F2              3281   	sb	0f22ah.5
00:00AA 02 CE                    3282   	bal	_$M315
00:00AC                          3283   _$M314 :
00:00AC D2-A0 2A-F2              3284   	rb	0f22ah.5
00:00B0                          3285   _$M315 :
                                 3286   
                                 3287   ;;	P56C0 = bit6; P57C0 = bit7;
                                 3288   CLINEA 0000H 0001H 03A2H 0002H 001CH
00:00B0 4A D0                    3289   	l	r0,	10[fp]
00:00B2 01 20                    3290   	and	r0,	#01h
00:00B4 03 C9                    3291   	beq	_$M316
00:00B6 E0-A0 2A-F2              3292   	sb	0f22ah.6
00:00BA 02 CE                    3293   	bal	_$M317
00:00BC                          3294   _$M316 :
00:00BC E2-A0 2A-F2              3295   	rb	0f22ah.6
00:00C0                          3296   _$M317 :
00:00C0 4C D0                    3297   	l	r0,	12[fp]
00:00C2 01 20                    3298   	and	r0,	#01h
00:00C4 03 C9                    3299   	beq	_$M318
00:00C6 F0-A0 2A-F2              3300   	sb	0f22ah.7
00:00CA 02 CE                    3301   	bal	_$M319
00:00CC                          3302   _$M318 :
00:00CC F2-A0 2A-F2              3303   	rb	0f22ah.7
00:00D0                          3304   _$M319 :
                                 3305   
                                 3306   ;;   return (PORT_DEPLOY_OK);   	
                                 3307   CLINEA 0000H 0001H 03A3H 0004H 001FH
00:00D0 00 E0                    3308   	mov	er0,	#0 
00:00D2 00-F0'00-00'             3309   	b	_$L466
                                 3310   CBLOCKEND 23 1 932
                                 3311   CFUNCTIONEND 23
                                 3312   
                                 3313   
  --------------------------     3314   	rseg $$P5CON_1init$port
                                 3315   CFUNCTION 24
                                 3316   
00:0000                          3317   _P5CON_1init	:
                                 3318   CBLOCK 24 1 944
                                 3319   
                                 3320   ;; {
                                 3321   CLINEA 0000H 0001H 03B0H 0002H 0002H
00:0000 05-F2                    3322   	mov	er2,	er0
                                 3323   CBLOCK 24 2 944
                                 3324   CARGUMENT 46H 0002H 0025H "bit0" 02H 00
                                        H 01H
                                 3325   
                                 3326   ;;   if(bit0 > PORT_HIGH) {
                                 3327   CLINEA 0000H 0001H 03B1H 0004H 0019H
00:0002 01 70                    3328   	cmp	r0,	#01h
00:0004 00 51                    3329   	cmpc	r1,	#00h
00:0006 02 C3                    3330   	ble	_$L493
                                 3331   CBLOCK 24 3 945
                                 3332   
RASU8(ML610409)Relocatable Assembler, Ver.1.70.0    assemble list. page:  66 
 Title : 
## Loc. Object                   Line   Source Statements

                                 3333   ;;       	 return (PORT_DEPLOY_FA
                                        IL);
                                 3334   CLINEA 0000H 0001H 03B2H 000AH 0023H
00:0008 7F E0                    3335   	mov	er0,	#-1
                                 3336   CBLOCKEND 24 3 947
                                 3337   CBLOCKEND 24 2 950
                                 3338   
                                 3339   ;;  }
                                 3340   CLINEA 0000H 0001H 03B6H 0003H 0003H
00:000A 1F-FE                    3341   	rt
                                 3342   
                                 3343   ;;        }
                                 3344   CLINEA 0000H 0000H 03B3H 0009H 0009H
00:000C                          3345   _$L493 :
                                 3346   
                                 3347   ;;	P5UD = bit0; 
                                 3348   CLINEA 0000H 0001H 03B4H 0002H 000EH
00:000C 20-80                    3349   	mov	r0,	r2
00:000E 01 20                    3350   	and	r0,	#01h
00:0010 03 C9                    3351   	beq	_$M321
00:0012 80-A0 2B-F2              3352   	sb	0f22bh.0
00:0016 02 CE                    3353   	bal	_$M322
00:0018                          3354   _$M321 :
00:0018 82-A0 2B-F2              3355   	rb	0f22bh.0
00:001C                          3356   _$M322 :
                                 3357   
                                 3358   ;;   return (PORT_DEPLOY_OK);   	
                                 3359   CLINEA 0000H 0001H 03B5H 0004H 001FH
00:001C 00 E0                    3360   	mov	er0,	#0 
00:001E 1F-FE                    3361   	rt
                                 3362   CBLOCKEND 24 1 950
                                 3363   CFUNCTIONEND 24
                                 3364   
                                 3365   
  --------------------------     3366   	rseg $$P5MOD_0init$port
                                 3367   CFUNCTION 25
                                 3368   
00:0000                          3369   _P5MOD_0init	:
                                 3370   CBLOCK 25 1 977
                                 3371   
                                 3372   ;; {
                                 3373   CLINEA 0000H 0001H 03D1H 0002H 0002H
00:0000 5E-FE                    3374   	push	fp
00:0002 1A-AE                    3375   	mov	fp,	sp
00:0004 6E-F8                    3376   	push	xr8
00:0006 05-F8                    3377   	mov	er8,	er0
00:0008 25-FA                    3378   	mov	er10,	er2
                                 3379   CBLOCK 25 2 977
                                 3380   CARGUMENT 46H 0002H 0028H "bit0" 02H 00
                                        H 01H
                                 3381   CARGUMENT 46H 0002H 0029H "bit1" 02H 00
                                        H 01H
                                 3382   CARGUMENT 42H 0002H 0002H "bit2" 02H 00
                                        H 01H
                                 3383   CARGUMENT 42H 0002H 0004H "bit4" 02H 00
                                        H 01H
RASU8(ML610409)Relocatable Assembler, Ver.1.70.0    assemble list. page:  67 
 Title : 
## Loc. Object                   Line   Source Statements

                                 3384   CARGUMENT 42H 0002H 0006H "bit5" 02H 00
                                        H 01H
                                 3385   CARGUMENT 42H 0002H 0008H "bit6" 02H 00
                                        H 01H
                                 3386   
                                 3387   ;;          bit6 > PORT_HIGH) {
                                 3388   CLINEA 0000H 0001H 03D5H 000BH 001DH
00:000A 01 70                    3389   	cmp	r0,	#01h
00:000C 00 51                    3390   	cmpc	r1,	#00h
00:000E 13 C2                    3391   	bgt	_$L497
00:0010 01 72                    3392   	cmp	r2,	#01h
00:0012 00 53                    3393   	cmpc	r3,	#00h
00:0014 10 C2                    3394   	bgt	_$L497
00:0016 42 B0                    3395   	l	er0,	2[fp]
00:0018 01 70                    3396   	cmp	r0,	#01h
00:001A 00 51                    3397   	cmpc	r1,	#00h
00:001C 0C C2                    3398   	bgt	_$L497
00:001E 44 B0                    3399   	l	er0,	4[fp]
00:0020 01 70                    3400   	cmp	r0,	#01h
00:0022 00 51                    3401   	cmpc	r1,	#00h
00:0024 08 C2                    3402   	bgt	_$L497
00:0026 46 B0                    3403   	l	er0,	6[fp]
00:0028 01 70                    3404   	cmp	r0,	#01h
00:002A 00 51                    3405   	cmpc	r1,	#00h
00:002C 04 C2                    3406   	bgt	_$L497
00:002E 48 B0                    3407   	l	er0,	8[fp]
00:0030 01 70                    3408   	cmp	r0,	#01h
00:0032 00 51                    3409   	cmpc	r1,	#00h
00:0034 05 C3                    3410   	ble	_$L496
00:0036                          3411   _$L497 :
                                 3412   CBLOCK 25 3 981
                                 3413   
                                 3414   ;;       	 return (PORT_DEPLOY_FA
                                        IL);
                                 3415   CLINEA 0000H 0001H 03D6H 000AH 0023H
00:0036 7F E0                    3416   	mov	er0,	#-1
                                 3417   CBLOCKEND 25 3 983
                                 3418   CBLOCKEND 25 2 989
                                 3419   
                                 3420   ;;  }
                                 3421   CLINEA 0000H 0001H 03DDH 0003H 0003H
00:0038                          3422   _$L495 :
00:0038 2E-F8                    3423   	pop	xr8
00:003A EA-A1                    3424   	mov	sp,	fp
00:003C 1E-FE                    3425   	pop	fp
00:003E 1F-FE                    3426   	rt
                                 3427   
                                 3428   ;;        }
                                 3429   CLINEA 0000H 0000H 03D7H 0009H 0009H
00:0040                          3430   _$L496 :
                                 3431   
                                 3432   ;;	P50MD0 = bit0; P51MD0 = bit1;
                                 3433   CLINEA 0000H 0001H 03D8H 0002H 001EH
00:0040 80-80                    3434   	mov	r0,	r8
00:0042 01 20                    3435   	and	r0,	#01h
00:0044 03 C9                    3436   	beq	_$M324
RASU8(ML610409)Relocatable Assembler, Ver.1.70.0    assemble list. page:  68 
 Title : 
## Loc. Object                   Line   Source Statements

00:0046 80-A0 2C-F2              3437   	sb	0f22ch.0
00:004A 02 CE                    3438   	bal	_$M325
00:004C                          3439   _$M324 :
00:004C 82-A0 2C-F2              3440   	rb	0f22ch.0
00:0050                          3441   _$M325 :
00:0050 A0-80                    3442   	mov	r0,	r10
00:0052 01 20                    3443   	and	r0,	#01h
00:0054 03 C9                    3444   	beq	_$M326
00:0056 90-A0 2C-F2              3445   	sb	0f22ch.1
00:005A 02 CE                    3446   	bal	_$M327
00:005C                          3447   _$M326 :
00:005C 92-A0 2C-F2              3448   	rb	0f22ch.1
00:0060                          3449   _$M327 :
                                 3450   
                                 3451   ;;	P52MD0 = bit2; 
                                 3452   CLINEA 0000H 0001H 03D9H 0002H 0010H
00:0060 42 D0                    3453   	l	r0,	2[fp]
00:0062 01 20                    3454   	and	r0,	#01h
00:0064 03 C9                    3455   	beq	_$M328
00:0066 A0-A0 2C-F2              3456   	sb	0f22ch.2
00:006A 02 CE                    3457   	bal	_$M329
00:006C                          3458   _$M328 :
00:006C A2-A0 2C-F2              3459   	rb	0f22ch.2
00:0070                          3460   _$M329 :
                                 3461   
                                 3462   ;;	P54MD0 = bit4; P55MD0 = bit5;
                                 3463   CLINEA 0000H 0001H 03DAH 0002H 001EH
00:0070 44 D0                    3464   	l	r0,	4[fp]
00:0072 01 20                    3465   	and	r0,	#01h
00:0074 03 C9                    3466   	beq	_$M330
00:0076 C0-A0 2C-F2              3467   	sb	0f22ch.4
00:007A 02 CE                    3468   	bal	_$M331
00:007C                          3469   _$M330 :
00:007C C2-A0 2C-F2              3470   	rb	0f22ch.4
00:0080                          3471   _$M331 :
00:0080 46 D0                    3472   	l	r0,	6[fp]
00:0082 01 20                    3473   	and	r0,	#01h
00:0084 03 C9                    3474   	beq	_$M332
00:0086 D0-A0 2C-F2              3475   	sb	0f22ch.5
00:008A 02 CE                    3476   	bal	_$M333
00:008C                          3477   _$M332 :
00:008C D2-A0 2C-F2              3478   	rb	0f22ch.5
00:0090                          3479   _$M333 :
                                 3480   
                                 3481   ;;	P56MD0 = bit6; 
                                 3482   CLINEA 0000H 0001H 03DBH 0002H 0010H
00:0090 48 D0                    3483   	l	r0,	8[fp]
00:0092 01 20                    3484   	and	r0,	#01h
00:0094 03 C9                    3485   	beq	_$M334
00:0096 E0-A0 2C-F2              3486   	sb	0f22ch.6
00:009A 02 CE                    3487   	bal	_$M335
00:009C                          3488   _$M334 :
00:009C E2-A0 2C-F2              3489   	rb	0f22ch.6
00:00A0                          3490   _$M335 :
                                 3491   
                                 3492   ;;   return (PORT_DEPLOY_OK);   	
RASU8(ML610409)Relocatable Assembler, Ver.1.70.0    assemble list. page:  69 
 Title : 
## Loc. Object                   Line   Source Statements

                                 3493   CLINEA 0000H 0001H 03DCH 0004H 001FH
00:00A0 00 E0                    3494   	mov	er0,	#0 
00:00A2 CA CE                    3495   	bal	_$L495
                                 3496   CBLOCKEND 25 1 989
                                 3497   CFUNCTIONEND 25
                                 3498   
                                 3499   
  --------------------------     3500   	rseg $$P5MOD_1init$port
                                 3501   CFUNCTION 26
                                 3502   
00:0000                          3503   _P5MOD_1init	:
                                 3504   CBLOCK 26 1 1018
                                 3505   
                                 3506   ;; {
                                 3507   CLINEA 0000H 0001H 03FAH 0002H 0002H
00:0000 5E-FE                    3508   	push	fp
00:0002 1A-AE                    3509   	mov	fp,	sp
00:0004 6E-F8                    3510   	push	xr8
00:0006 05-F8                    3511   	mov	er8,	er0
00:0008 25-FA                    3512   	mov	er10,	er2
                                 3513   CBLOCK 26 2 1018
                                 3514   CARGUMENT 46H 0002H 0028H "bit0" 02H 00
                                        H 01H
                                 3515   CARGUMENT 46H 0002H 0029H "bit1" 02H 00
                                        H 01H
                                 3516   CARGUMENT 42H 0002H 0002H "bit2" 02H 00
                                        H 01H
                                 3517   CARGUMENT 42H 0002H 0004H "bit4" 02H 00
                                        H 01H
                                 3518   CARGUMENT 42H 0002H 0006H "bit5" 02H 00
                                        H 01H
                                 3519   CARGUMENT 42H 0002H 0008H "bit6" 02H 00
                                        H 01H
                                 3520   
                                 3521   ;;         bit6 > PORT_HIGH) {
                                 3522   CLINEA 0000H 0001H 03FEH 000AH 001CH
00:000A 01 70                    3523   	cmp	r0,	#01h
00:000C 00 51                    3524   	cmpc	r1,	#00h
00:000E 13 C2                    3525   	bgt	_$L517
00:0010 01 72                    3526   	cmp	r2,	#01h
00:0012 00 53                    3527   	cmpc	r3,	#00h
00:0014 10 C2                    3528   	bgt	_$L517
00:0016 42 B0                    3529   	l	er0,	2[fp]
00:0018 01 70                    3530   	cmp	r0,	#01h
00:001A 00 51                    3531   	cmpc	r1,	#00h
00:001C 0C C2                    3532   	bgt	_$L517
00:001E 44 B0                    3533   	l	er0,	4[fp]
00:0020 01 70                    3534   	cmp	r0,	#01h
00:0022 00 51                    3535   	cmpc	r1,	#00h
00:0024 08 C2                    3536   	bgt	_$L517
00:0026 46 B0                    3537   	l	er0,	6[fp]
00:0028 01 70                    3538   	cmp	r0,	#01h
00:002A 00 51                    3539   	cmpc	r1,	#00h
00:002C 04 C2                    3540   	bgt	_$L517
00:002E 48 B0                    3541   	l	er0,	8[fp]
00:0030 01 70                    3542   	cmp	r0,	#01h
RASU8(ML610409)Relocatable Assembler, Ver.1.70.0    assemble list. page:  70 
 Title : 
## Loc. Object                   Line   Source Statements

00:0032 00 51                    3543   	cmpc	r1,	#00h
00:0034 05 C3                    3544   	ble	_$L516
00:0036                          3545   _$L517 :
                                 3546   CBLOCK 26 3 1022
                                 3547   
                                 3548   ;;       	 return (PORT_DEPLOY_FA
                                        IL);
                                 3549   CLINEA 0000H 0001H 03FFH 000AH 0023H
00:0036 7F E0                    3550   	mov	er0,	#-1
                                 3551   CBLOCKEND 26 3 1024
                                 3552   CBLOCKEND 26 2 1030
                                 3553   
                                 3554   ;;  }
                                 3555   CLINEA 0000H 0001H 0406H 0003H 0003H
00:0038                          3556   _$L515 :
00:0038 2E-F8                    3557   	pop	xr8
00:003A EA-A1                    3558   	mov	sp,	fp
00:003C 1E-FE                    3559   	pop	fp
00:003E 1F-FE                    3560   	rt
                                 3561   
                                 3562   ;;        }
                                 3563   CLINEA 0000H 0000H 0400H 0009H 0009H
00:0040                          3564   _$L516 :
                                 3565   
                                 3566   ;;	P50MD1 = bit0; P51MD1 = bit1;
                                 3567   CLINEA 0000H 0001H 0401H 0002H 001EH
00:0040 80-80                    3568   	mov	r0,	r8
00:0042 01 20                    3569   	and	r0,	#01h
00:0044 03 C9                    3570   	beq	_$M337
00:0046 80-A0 2D-F2              3571   	sb	0f22dh.0
00:004A 02 CE                    3572   	bal	_$M338
00:004C                          3573   _$M337 :
00:004C 82-A0 2D-F2              3574   	rb	0f22dh.0
00:0050                          3575   _$M338 :
00:0050 A0-80                    3576   	mov	r0,	r10
00:0052 01 20                    3577   	and	r0,	#01h
00:0054 03 C9                    3578   	beq	_$M339
00:0056 90-A0 2D-F2              3579   	sb	0f22dh.1
00:005A 02 CE                    3580   	bal	_$M340
00:005C                          3581   _$M339 :
00:005C 92-A0 2D-F2              3582   	rb	0f22dh.1
00:0060                          3583   _$M340 :
                                 3584   
                                 3585   ;;	P52MD1 = bit2; 
                                 3586   CLINEA 0000H 0001H 0402H 0002H 0010H
00:0060 42 D0                    3587   	l	r0,	2[fp]
00:0062 01 20                    3588   	and	r0,	#01h
00:0064 03 C9                    3589   	beq	_$M341
00:0066 A0-A0 2D-F2              3590   	sb	0f22dh.2
00:006A 02 CE                    3591   	bal	_$M342
00:006C                          3592   _$M341 :
00:006C A2-A0 2D-F2              3593   	rb	0f22dh.2
00:0070                          3594   _$M342 :
                                 3595   
                                 3596   ;;	P54MD1 = bit4; P55MD1 = bit5;
                                 3597   CLINEA 0000H 0001H 0403H 0002H 001EH
RASU8(ML610409)Relocatable Assembler, Ver.1.70.0    assemble list. page:  71 
 Title : 
## Loc. Object                   Line   Source Statements

00:0070 44 D0                    3598   	l	r0,	4[fp]
00:0072 01 20                    3599   	and	r0,	#01h
00:0074 03 C9                    3600   	beq	_$M343
00:0076 C0-A0 2D-F2              3601   	sb	0f22dh.4
00:007A 02 CE                    3602   	bal	_$M344
00:007C                          3603   _$M343 :
00:007C C2-A0 2D-F2              3604   	rb	0f22dh.4
00:0080                          3605   _$M344 :
00:0080 46 D0                    3606   	l	r0,	6[fp]
00:0082 01 20                    3607   	and	r0,	#01h
00:0084 03 C9                    3608   	beq	_$M345
00:0086 D0-A0 2D-F2              3609   	sb	0f22dh.5
00:008A 02 CE                    3610   	bal	_$M346
00:008C                          3611   _$M345 :
00:008C D2-A0 2D-F2              3612   	rb	0f22dh.5
00:0090                          3613   _$M346 :
                                 3614   
                                 3615   ;;	P56MD1 = bit6; 
                                 3616   CLINEA 0000H 0001H 0404H 0002H 0010H
00:0090 48 D0                    3617   	l	r0,	8[fp]
00:0092 01 20                    3618   	and	r0,	#01h
00:0094 03 C9                    3619   	beq	_$M347
00:0096 E0-A0 2D-F2              3620   	sb	0f22dh.6
00:009A 02 CE                    3621   	bal	_$M348
00:009C                          3622   _$M347 :
00:009C E2-A0 2D-F2              3623   	rb	0f22dh.6
00:00A0                          3624   _$M348 :
                                 3625   
                                 3626   ;;   return (PORT_DEPLOY_OK);   	
                                 3627   CLINEA 0000H 0001H 0405H 0004H 001FH
00:00A0 00 E0                    3628   	mov	er0,	#0 
00:00A2 CA CE                    3629   	bal	_$L515
                                 3630   CBLOCKEND 26 1 1030
                                 3631   CFUNCTIONEND 26
                                 3632   
                                 3633   
  --------------------------     3634   	rseg $$P5SISEL_init$port
                                 3635   CFUNCTION 27
                                 3636   
00:0000                          3637   _P5SISEL_init	:
                                 3638   CBLOCK 27 1 1064
                                 3639   
                                 3640   ;; {
                                 3641   CLINEA 0000H 0001H 0428H 0002H 0002H
00:0000 5E-FE                    3642   	push	fp
00:0002 1A-AE                    3643   	mov	fp,	sp
00:0004 6E-F8                    3644   	push	xr8
00:0006 05-F8                    3645   	mov	er8,	er0
00:0008 25-FA                    3646   	mov	er10,	er2
                                 3647   CBLOCK 27 2 1064
                                 3648   CARGUMENT 46H 0002H 0028H "bit0" 02H 00
                                        H 01H
                                 3649   CARGUMENT 46H 0002H 0029H "bit1" 02H 00
                                        H 01H
                                 3650   CARGUMENT 42H 0002H 0002H "bit2" 02H 00
                                        H 01H
RASU8(ML610409)Relocatable Assembler, Ver.1.70.0    assemble list. page:  72 
 Title : 
## Loc. Object                   Line   Source Statements

                                 3651   CARGUMENT 42H 0002H 0004H "bit3" 02H 00
                                        H 01H
                                 3652   CARGUMENT 42H 0002H 0006H "bit4" 02H 00
                                        H 01H
                                 3653   CARGUMENT 42H 0002H 0008H "bit5" 02H 00
                                        H 01H
                                 3654   CARGUMENT 42H 0002H 000AH "bit6" 02H 00
                                        H 01H
                                 3655   CARGUMENT 42H 0002H 000CH "bit7" 02H 00
                                        H 01H
                                 3656   
                                 3657   ;;	     bit6 > PORT_HIGH || bit7 >
                                         PORT_HIGH) {
                                 3658   CLINEA 0000H 0001H 042CH 0007H 002DH
00:000A 01 70                    3659   	cmp	r0,	#01h
00:000C 00 51                    3660   	cmpc	r1,	#00h
00:000E 1B C2                    3661   	bgt	_$L537
00:0010 01 72                    3662   	cmp	r2,	#01h
00:0012 00 53                    3663   	cmpc	r3,	#00h
00:0014 18 C2                    3664   	bgt	_$L537
00:0016 42 B0                    3665   	l	er0,	2[fp]
00:0018 01 70                    3666   	cmp	r0,	#01h
00:001A 00 51                    3667   	cmpc	r1,	#00h
00:001C 14 C2                    3668   	bgt	_$L537
00:001E 44 B0                    3669   	l	er0,	4[fp]
00:0020 01 70                    3670   	cmp	r0,	#01h
00:0022 00 51                    3671   	cmpc	r1,	#00h
00:0024 10 C2                    3672   	bgt	_$L537
00:0026 46 B0                    3673   	l	er0,	6[fp]
00:0028 01 70                    3674   	cmp	r0,	#01h
00:002A 00 51                    3675   	cmpc	r1,	#00h
00:002C 0C C2                    3676   	bgt	_$L537
00:002E 48 B0                    3677   	l	er0,	8[fp]
00:0030 01 70                    3678   	cmp	r0,	#01h
00:0032 00 51                    3679   	cmpc	r1,	#00h
00:0034 08 C2                    3680   	bgt	_$L537
00:0036 4A B0                    3681   	l	er0,	10[fp]
00:0038 01 70                    3682   	cmp	r0,	#01h
00:003A 00 51                    3683   	cmpc	r1,	#00h
00:003C 04 C2                    3684   	bgt	_$L537
00:003E 4C B0                    3685   	l	er0,	12[fp]
00:0040 01 70                    3686   	cmp	r0,	#01h
00:0042 00 51                    3687   	cmpc	r1,	#00h
00:0044 05 C3                    3688   	ble	_$L536
00:0046                          3689   _$L537 :
                                 3690   CBLOCK 27 3 1068
                                 3691   
                                 3692   ;;       	 return (PORT_DEPLOY_FA
                                        IL);
                                 3693   CLINEA 0000H 0001H 042DH 000AH 0023H
00:0046 7F E0                    3694   	mov	er0,	#-1
                                 3695   CBLOCKEND 27 3 1070
                                 3696   CBLOCKEND 27 2 1076
                                 3697   
                                 3698   ;;  }
                                 3699   CLINEA 0000H 0001H 0434H 0003H 0003H
RASU8(ML610409)Relocatable Assembler, Ver.1.70.0    assemble list. page:  73 
 Title : 
## Loc. Object                   Line   Source Statements

00:0048                          3700   _$L535 :
00:0048 2E-F8                    3701   	pop	xr8
00:004A EA-A1                    3702   	mov	sp,	fp
00:004C 1E-FE                    3703   	pop	fp
00:004E 1F-FE                    3704   	rt
                                 3705   
                                 3706   ;;        }
                                 3707   CLINEA 0000H 0000H 042EH 0009H 0009H
00:0050                          3708   _$L536 :
                                 3709   
                                 3710   ;;	P50IS = bit0; P51IS = bit1;
                                 3711   CLINEA 0000H 0001H 042FH 0002H 001CH
00:0050 80-80                    3712   	mov	r0,	r8
00:0052 01 20                    3713   	and	r0,	#01h
00:0054 03 C9                    3714   	beq	_$M350
00:0056 80-A0 2E-F2              3715   	sb	0f22eh.0
00:005A 02 CE                    3716   	bal	_$M351
00:005C                          3717   _$M350 :
00:005C 82-A0 2E-F2              3718   	rb	0f22eh.0
00:0060                          3719   _$M351 :
00:0060 A0-80                    3720   	mov	r0,	r10
00:0062 01 20                    3721   	and	r0,	#01h
00:0064 03 C9                    3722   	beq	_$M352
00:0066 90-A0 2E-F2              3723   	sb	0f22eh.1
00:006A 02 CE                    3724   	bal	_$M353
00:006C                          3725   _$M352 :
00:006C 92-A0 2E-F2              3726   	rb	0f22eh.1
00:0070                          3727   _$M353 :
                                 3728   
                                 3729   ;;	P52IS = bit2; P53IS = bit3;
                                 3730   CLINEA 0000H 0001H 0430H 0002H 001CH
00:0070 42 D0                    3731   	l	r0,	2[fp]
00:0072 01 20                    3732   	and	r0,	#01h
00:0074 03 C9                    3733   	beq	_$M354
00:0076 A0-A0 2E-F2              3734   	sb	0f22eh.2
00:007A 02 CE                    3735   	bal	_$M355
00:007C                          3736   _$M354 :
00:007C A2-A0 2E-F2              3737   	rb	0f22eh.2
00:0080                          3738   _$M355 :
00:0080 44 D0                    3739   	l	r0,	4[fp]
00:0082 01 20                    3740   	and	r0,	#01h
00:0084 03 C9                    3741   	beq	_$M356
00:0086 B0-A0 2E-F2              3742   	sb	0f22eh.3
00:008A 02 CE                    3743   	bal	_$M357
00:008C                          3744   _$M356 :
00:008C B2-A0 2E-F2              3745   	rb	0f22eh.3
00:0090                          3746   _$M357 :
                                 3747   
                                 3748   ;;	P54IS = bit4; P55IS = bit5;
                                 3749   CLINEA 0000H 0001H 0431H 0002H 001CH
00:0090 46 D0                    3750   	l	r0,	6[fp]
00:0092 01 20                    3751   	and	r0,	#01h
00:0094 03 C9                    3752   	beq	_$M358
00:0096 C0-A0 2E-F2              3753   	sb	0f22eh.4
00:009A 02 CE                    3754   	bal	_$M359
00:009C                          3755   _$M358 :
RASU8(ML610409)Relocatable Assembler, Ver.1.70.0    assemble list. page:  74 
 Title : 
## Loc. Object                   Line   Source Statements

00:009C C2-A0 2E-F2              3756   	rb	0f22eh.4
00:00A0                          3757   _$M359 :
00:00A0 48 D0                    3758   	l	r0,	8[fp]
00:00A2 01 20                    3759   	and	r0,	#01h
00:00A4 03 C9                    3760   	beq	_$M360
00:00A6 D0-A0 2E-F2              3761   	sb	0f22eh.5
00:00AA 02 CE                    3762   	bal	_$M361
00:00AC                          3763   _$M360 :
00:00AC D2-A0 2E-F2              3764   	rb	0f22eh.5
00:00B0                          3765   _$M361 :
                                 3766   
                                 3767   ;;	P56IS = bit6; P57IS = bit7;
                                 3768   CLINEA 0000H 0001H 0432H 0002H 001CH
00:00B0 4A D0                    3769   	l	r0,	10[fp]
00:00B2 01 20                    3770   	and	r0,	#01h
00:00B4 03 C9                    3771   	beq	_$M362
00:00B6 E0-A0 2E-F2              3772   	sb	0f22eh.6
00:00BA 02 CE                    3773   	bal	_$M363
00:00BC                          3774   _$M362 :
00:00BC E2-A0 2E-F2              3775   	rb	0f22eh.6
00:00C0                          3776   _$M363 :
00:00C0 4C D0                    3777   	l	r0,	12[fp]
00:00C2 01 20                    3778   	and	r0,	#01h
00:00C4 03 C9                    3779   	beq	_$M364
00:00C6 F0-A0 2E-F2              3780   	sb	0f22eh.7
00:00CA 02 CE                    3781   	bal	_$M365
00:00CC                          3782   _$M364 :
00:00CC F2-A0 2E-F2              3783   	rb	0f22eh.7
00:00D0                          3784   _$M365 :
                                 3785   
                                 3786   ;;   return (PORT_DEPLOY_OK);   	
                                 3787   CLINEA 0000H 0001H 0433H 0004H 001FH
00:00D0 00 E0                    3788   	mov	er0,	#0 
00:00D2 00-F0'00-00'             3789   	b	_$L535
                                 3790   CBLOCKEND 27 1 1076
                                 3791   CFUNCTIONEND 27
                                 3792   
                                 3793   	public _PCON_1init
                                 3794   	public _P5SISEL_init
                                 3795   	public _PCON_0init
                                 3796   	public _P0D_init
                                 3797   	public _P2D_init
                                 3798   	public _P3D_init
                                 3799   	public _P4D_init
                                 3800   	public _P5D_init
                                 3801   	public _P3DIR_init
                                 3802   	public _P2MOD_init
                                 3803   	public _P4DIR_init
                                 3804   	public _P5DIR_init
                                 3805   	public _EXICON_0init
                                 3806   	public _EXICON_1init
                                 3807   	public _EXICON_2init
                                 3808   	public _P5CON_1init
                                 3809   	public _P2CON_0init
                                 3810   	public _P4MOD_1init
                                 3811   	public _P3CON_0init
RASU8(ML610409)Relocatable Assembler, Ver.1.70.0    assemble list. page:  75 
 Title : 
## Loc. Object                   Line   Source Statements

                                 3812   	public _P5MOD_1init
                                 3813   	public _P4CON_0init
                                 3814   	public _P5CON_0init
                                 3815   	public _P3MOD_0init
                                 3816   	public _P2CON_1init
                                 3817   	public _P4MOD_0init
                                 3818   	public _P3CON_1init
                                 3819   	public _P5MOD_0init
                                 3820   	public _P4CON_1init
                                 3821   	extrn code near : _main
                                 3822   
                                 3823   	end



  Target       : ML610409 (nX-U8/100)
  Memory Model : SMALL
  Data   Model : NEAR
  ROM WINDOW   : (not specified)
  Internal RAM : E000H to E3FFH

  Errors   : 0
  Warnings : 10  (/Wrpeast)
  Lines    : 3823
